
E:/Lewis/BT-013/SoftwareMaterial/SourceCode/Current_Verson/app_test//Obj/TWSBT_013_charge_case_V0_0_4.elf:     file format elf32-csky-little


Disassembly of section .text:

00002000 <vector_table>:
    2000:	00002108 	.long	0x00002108
    2004:	00006806 	.long	0x00006806
    2008:	000067f6 	.long	0x000067f6
    200c:	00002180 	.long	0x00002180
    2010:	000067fe 	.long	0x000067fe
    2014:	000067bc 	.long	0x000067bc
    2018:	00002180 	.long	0x00002180
    201c:	000067ee 	.long	0x000067ee
    2020:	000067e6 	.long	0x000067e6
    2024:	00002180 	.long	0x00002180
    2028:	00002180 	.long	0x00002180
    202c:	00002180 	.long	0x00002180
    2030:	00002180 	.long	0x00002180
    2034:	00002180 	.long	0x00002180
    2038:	00002180 	.long	0x00002180
    203c:	00002180 	.long	0x00002180
    2040:	000067de 	.long	0x000067de
    2044:	000067d6 	.long	0x000067d6
    2048:	000067ce 	.long	0x000067ce
    204c:	000067c6 	.long	0x000067c6
    2050:	00002180 	.long	0x00002180
    2054:	00002180 	.long	0x00002180
    2058:	00002180 	.long	0x00002180
    205c:	00002180 	.long	0x00002180
    2060:	00002180 	.long	0x00002180
    2064:	00002180 	.long	0x00002180
    2068:	00002180 	.long	0x00002180
    206c:	00002180 	.long	0x00002180
    2070:	00002180 	.long	0x00002180
    2074:	00002180 	.long	0x00002180
    2078:	00002180 	.long	0x00002180
    207c:	000067be 	.long	0x000067be
    2080:	000060bc 	.long	0x000060bc
    2084:	000060d4 	.long	0x000060d4
    2088:	000061b8 	.long	0x000061b8
    208c:	0000681e 	.long	0x0000681e
    2090:	00006c5c 	.long	0x00006c5c
    2094:	00002180 	.long	0x00002180
    2098:	000064b4 	.long	0x000064b4
    209c:	00008584 	.long	0x00008584
    20a0:	00007124 	.long	0x00007124
    20a4:	00006364 	.long	0x00006364
    20a8:	00002180 	.long	0x00002180
    20ac:	00002180 	.long	0x00002180
    20b0:	00006548 	.long	0x00006548
    20b4:	000065b8 	.long	0x000065b8
    20b8:	00006604 	.long	0x00006604
    20bc:	00007194 	.long	0x00007194
    20c0:	00002180 	.long	0x00002180
    20c4:	00006694 	.long	0x00006694
    20c8:	00002180 	.long	0x00002180
    20cc:	000066a8 	.long	0x000066a8
    20d0:	000066e4 	.long	0x000066e4
    20d4:	0000850c 	.long	0x0000850c
    20d8:	00007144 	.long	0x00007144
    20dc:	00006768 	.long	0x00006768
    20e0:	00006816 	.long	0x00006816
    20e4:	0000680e 	.long	0x0000680e
    20e8:	00008a48 	.long	0x00008a48
    20ec:	00002180 	.long	0x00002180
    20f0:	000062a4 	.long	0x000062a4
    20f4:	00006500 	.long	0x00006500
    20f8:	00002180 	.long	0x00002180
    20fc:	00002180 	.long	0x00002180
	...

00002108 <__start>:
//  .long __start
__start:

	
  //initialize all registers
  movi r0, 0
    2108:	3000      	movi      	r0, 0
  movi r1, 0
    210a:	3100      	movi      	r1, 0
  movi r2, 0
    210c:	3200      	movi      	r2, 0
  movi r3, 0
    210e:	3300      	movi      	r3, 0
  movi r4, 0
    2110:	3400      	movi      	r4, 0
  movi r5, 0
    2112:	3500      	movi      	r5, 0
  movi r6, 0
    2114:	3600      	movi      	r6, 0
  movi r7, 0
    2116:	3700      	movi      	r7, 0
  //movi r13, 0
  //movi r14, 0
  //movi r15, 0

//set VBR
  lrw r2, vector_table
    2118:	105b      	lrw      	r2, 0x2000	// 2184 <DummyHandler+0x4>
  mtcr r2, cr<1,0>
    211a:	c0026421 	mtcr      	r2, cr<1, 0>

//enable EE bit of psr
  mfcr r2, cr<0,0>
    211e:	c0006022 	mfcr      	r2, cr<0, 0>
  bseti r2, r2, 8
    2122:	3aa8      	bseti      	r2, 8
  mtcr r2, cr<0,0>
    2124:	c0026420 	mtcr      	r2, cr<0, 0>
//  st.w    r2, (r1,0x4)
//  movi    r2, 0x1
//  st.w    r2, (r1,0x0)

//disable power peak 
  lrw     r1, 0xe000ef90
    2128:	1038      	lrw      	r1, 0xe000ef90	// 2188 <DummyHandler+0x8>
  movi    r2, 0x0
    212a:	3200      	movi      	r2, 0
  st.w    r2, (r1, 0x0)
    212c:	b140      	st.w      	r2, (r1, 0x0)



//initialize kernel stack
  lrw  r7, __kernel_stack
    212e:	10f8      	lrw      	r7, 0x20000ff8	// 218c <DummyHandler+0xc>
  mov r14,r7
    2130:	6f9f      	mov      	r14, r7
  subi r6,r7,0x4
    2132:	5fcf      	subi      	r6, r7, 4

  //lrw  r3, 0x40
  lrw  r3, 0x04
    2134:	3304      	movi      	r3, 4
	
  subu r4, r7, r3
    2136:	5f8d      	subu      	r4, r7, r3
  lrw  r5, 0x0
    2138:	3500      	movi      	r5, 0

0000213a <INIT_KERLE_STACK>:
INIT_KERLE_STACK:
  addi r4, 0x4
    213a:	2403      	addi      	r4, 4
  st.w r5, (r4)
    213c:	b4a0      	st.w      	r5, (r4, 0x0)
  //cmphs r7, r4
  cmphs r6, r4
    213e:	6518      	cmphs      	r6, r4
  bt  INIT_KERLE_STACK
    2140:	0bfd      	bt      	0x213a	// 213a <INIT_KERLE_STACK>

00002142 <__to_main>:
        
__to_main:
  lrw r0,__main
    2142:	1014      	lrw      	r0, 0x4858	// 2190 <DummyHandler+0x10>
  jsr r0
    2144:	7bc1      	jsr      	r0
  mov r0, r0
    2146:	6c03      	mov      	r0, r0
  mov r0, r0
    2148:	6c03      	mov      	r0, r0


  
  lrw r15, __exit
    214a:	ea8f0013 	lrw      	r15, 0x215c	// 2194 <DummyHandler+0x14>
  lrw r0,main
    214e:	1013      	lrw      	r0, 0x6828	// 2198 <DummyHandler+0x18>
  jmp r0
    2150:	7800      	jmp      	r0
  mov r0, r0
    2152:	6c03      	mov      	r0, r0
  mov r0, r0
    2154:	6c03      	mov      	r0, r0
  mov r0, r0
    2156:	6c03      	mov      	r0, r0
  mov r0, r0
    2158:	6c03      	mov      	r0, r0
  mov r0, r0
    215a:	6c03      	mov      	r0, r0

0000215c <__exit>:

.export __exit
__exit:

  lrw r4, 0x20003000
    215c:	1090      	lrw      	r4, 0x20003000	// 219c <DummyHandler+0x1c>
  //lrw r5, 0x0
  mov r5, r0
    215e:	6d43      	mov      	r5, r0
  st.w r5, (r4)
    2160:	b4a0      	st.w      	r5, (r4, 0x0)

  mfcr r1, cr<0,0>
    2162:	c0006021 	mfcr      	r1, cr<0, 0>
  lrw  r1, 0xFFFF
    2166:	102f      	lrw      	r1, 0xffff	// 21a0 <DummyHandler+0x20>
  mtcr r1, cr<11,0>
    2168:	c001642b 	mtcr      	r1, cr<11, 0>
  lrw     r1, 0xFFF
    216c:	102e      	lrw      	r1, 0xfff	// 21a4 <DummyHandler+0x24>
  movi    r0, 0x0
    216e:	3000      	movi      	r0, 0
  st      r1, (r0)
    2170:	b020      	st.w      	r1, (r0, 0x0)

00002172 <__fail>:

.export __fail
__fail:
  lrw  r1, 0xEEEE
    2172:	102e      	lrw      	r1, 0xeeee	// 21a8 <DummyHandler+0x28>
  mtcr r1, cr<11,0>
    2174:	c001642b 	mtcr      	r1, cr<11, 0>
  lrw     r1, 0xEEE
    2178:	102d      	lrw      	r1, 0xeee	// 21ac <DummyHandler+0x2c>
  movi    r0, 0x0
    217a:	3000      	movi      	r0, 0
  st      r1, (r0)
    217c:	b020      	st.w      	r1, (r0, 0x0)

0000217e <__dummy>:

__dummy:
  br      __fail
    217e:	07fa      	br      	0x2172	// 2172 <__fail>

00002180 <DummyHandler>:

.export DummyHandler
DummyHandler:
  br      __fail
    2180:	07f9      	br      	0x2172	// 2172 <__fail>
    2182:	0000      	.short	0x0000
    2184:	00002000 	.long	0x00002000
    2188:	e000ef90 	.long	0xe000ef90
    218c:	20000ff8 	.long	0x20000ff8
    2190:	00004858 	.long	0x00004858
    2194:	0000215c 	.long	0x0000215c
    2198:	00006828 	.long	0x00006828
    219c:	20003000 	.long	0x20003000
    21a0:	0000ffff 	.long	0x0000ffff
    21a4:	00000fff 	.long	0x00000fff
    21a8:	0000eeee 	.long	0x0000eeee
    21ac:	00000eee 	.long	0x00000eee

000021b0 <___gnu_csky_case_uqi>:
    21b0:	1421      	subi      	r14, r14, 4
    21b2:	b820      	st.w      	r1, (r14, 0x0)
    21b4:	6c7f      	mov      	r1, r15
    21b6:	6040      	addu      	r1, r0
    21b8:	8120      	ld.b      	r1, (r1, 0x0)
    21ba:	4121      	lsli      	r1, r1, 1
    21bc:	63c4      	addu      	r15, r1
    21be:	9820      	ld.w      	r1, (r14, 0x0)
    21c0:	1401      	addi      	r14, r14, 4
    21c2:	783c      	jmp      	r15

000021c4 <___gnu_csky_case_uhi>:
    21c4:	1422      	subi      	r14, r14, 8
    21c6:	b801      	st.w      	r0, (r14, 0x4)
    21c8:	b820      	st.w      	r1, (r14, 0x0)
    21ca:	6c7f      	mov      	r1, r15
    21cc:	4001      	lsli      	r0, r0, 1
    21ce:	6040      	addu      	r1, r0
    21d0:	8920      	ld.h      	r1, (r1, 0x0)
    21d2:	4121      	lsli      	r1, r1, 1
    21d4:	63c4      	addu      	r15, r1
    21d6:	9801      	ld.w      	r0, (r14, 0x4)
    21d8:	9820      	ld.w      	r1, (r14, 0x0)
    21da:	1402      	addi      	r14, r14, 8
    21dc:	783c      	jmp      	r15
	...

000021e0 <__muldi3>:
    21e0:	14c4      	push      	r4-r7
    21e2:	1421      	subi      	r14, r14, 4
    21e4:	7501      	zexth      	r4, r0
    21e6:	48b0      	lsri      	r5, r0, 16
    21e8:	75c9      	zexth      	r7, r2
    21ea:	6d83      	mov      	r6, r0
    21ec:	b820      	st.w      	r1, (r14, 0x0)
    21ee:	6c13      	mov      	r0, r4
    21f0:	4a30      	lsri      	r1, r2, 16
    21f2:	7c1c      	mult      	r0, r7
    21f4:	7d04      	mult      	r4, r1
    21f6:	7dd4      	mult      	r7, r5
    21f8:	611c      	addu      	r4, r7
    21fa:	7d44      	mult      	r5, r1
    21fc:	4830      	lsri      	r1, r0, 16
    21fe:	6104      	addu      	r4, r1
    2200:	65d0      	cmphs      	r4, r7
    2202:	0804      	bt      	0x220a	// 220a <__muldi3+0x2a>
    2204:	3180      	movi      	r1, 128
    2206:	4129      	lsli      	r1, r1, 9
    2208:	6144      	addu      	r5, r1
    220a:	4c30      	lsri      	r1, r4, 16
    220c:	7cd8      	mult      	r3, r6
    220e:	6144      	addu      	r5, r1
    2210:	6c4f      	mov      	r1, r3
    2212:	9860      	ld.w      	r3, (r14, 0x0)
    2214:	7cc8      	mult      	r3, r2
    2216:	4490      	lsli      	r4, r4, 16
    2218:	604c      	addu      	r1, r3
    221a:	7401      	zexth      	r0, r0
    221c:	6010      	addu      	r0, r4
    221e:	6054      	addu      	r1, r5
    2220:	1401      	addi      	r14, r14, 4
    2222:	1484      	pop      	r4-r7

00002224 <__fixunsdfsi>:
    2224:	14d2      	push      	r4-r5, r15
    2226:	3200      	movi      	r2, 0
    2228:	106c      	lrw      	r3, 0x41e00000	// 2258 <__fixunsdfsi+0x34>
    222a:	6d43      	mov      	r5, r0
    222c:	6d07      	mov      	r4, r1
    222e:	e00008ad 	bsr      	0x3388	// 3388 <__gedf2>
    2232:	38df      	btsti      	r0, 31
    2234:	0c06      	bf      	0x2240	// 2240 <__fixunsdfsi+0x1c>
    2236:	6c17      	mov      	r0, r5
    2238:	6c53      	mov      	r1, r4
    223a:	e00008c5 	bsr      	0x33c4	// 33c4 <__fixdfsi>
    223e:	1492      	pop      	r4-r5, r15
    2240:	3200      	movi      	r2, 0
    2242:	1066      	lrw      	r3, 0x41e00000	// 2258 <__fixunsdfsi+0x34>
    2244:	6c17      	mov      	r0, r5
    2246:	6c53      	mov      	r1, r4
    2248:	e00006c0 	bsr      	0x2fc8	// 2fc8 <__subdf3>
    224c:	e00008bc 	bsr      	0x33c4	// 33c4 <__fixdfsi>
    2250:	3380      	movi      	r3, 128
    2252:	4378      	lsli      	r3, r3, 24
    2254:	600c      	addu      	r0, r3
    2256:	1492      	pop      	r4-r5, r15
    2258:	41e00000 	.long	0x41e00000

0000225c <__udivdi3>:
    225c:	14d4      	push      	r4-r7, r15
    225e:	1426      	subi      	r14, r14, 24
    2260:	6dc7      	mov      	r7, r1
    2262:	3b40      	cmpnei      	r3, 0
    2264:	6d03      	mov      	r4, r0
    2266:	6c4f      	mov      	r1, r3
    2268:	6d8b      	mov      	r6, r2
    226a:	b800      	st.w      	r0, (r14, 0x0)
    226c:	6d5f      	mov      	r5, r7
    226e:	085b      	bt      	0x2324	// 2324 <__udivdi3+0xc8>
    2270:	649c      	cmphs      	r7, r2
    2272:	0874      	bt      	0x235a	// 235a <__udivdi3+0xfe>
    2274:	003d      	lrw      	r1, 0xffff	// 25fc <__udivdi3+0x3a0>
    2276:	6484      	cmphs      	r1, r2
    2278:	0cdc      	bf      	0x2430	// 2430 <__udivdi3+0x1d4>
    227a:	31ff      	movi      	r1, 255
    227c:	6484      	cmphs      	r1, r2
    227e:	0802      	bt      	0x2282	// 2282 <__udivdi3+0x26>
    2280:	3308      	movi      	r3, 8
    2282:	6c4b      	mov      	r1, r2
    2284:	704d      	lsr      	r1, r3
    2286:	0100      	lrw      	r0, 0x8d18	// 2600 <__udivdi3+0x3a4>
    2288:	6040      	addu      	r1, r0
    228a:	8120      	ld.b      	r1, (r1, 0x0)
    228c:	60c4      	addu      	r3, r1
    228e:	3120      	movi      	r1, 32
    2290:	604e      	subu      	r1, r3
    2292:	3940      	cmpnei      	r1, 0
    2294:	0c09      	bf      	0x22a6	// 22a6 <__udivdi3+0x4a>
    2296:	6d53      	mov      	r5, r4
    2298:	7084      	lsl      	r2, r1
    229a:	71c4      	lsl      	r7, r1
    229c:	714d      	lsr      	r5, r3
    229e:	7104      	lsl      	r4, r1
    22a0:	6d8b      	mov      	r6, r2
    22a2:	6d5c      	or      	r5, r7
    22a4:	b880      	st.w      	r4, (r14, 0x0)
    22a6:	4e90      	lsri      	r4, r6, 16
    22a8:	6c53      	mov      	r1, r4
    22aa:	6c17      	mov      	r0, r5
    22ac:	e0002458 	bsr      	0x6b5c	// 6b5c <__umodsi3>
    22b0:	b801      	st.w      	r0, (r14, 0x4)
    22b2:	6c53      	mov      	r1, r4
    22b4:	6c17      	mov      	r0, r5
    22b6:	e000242f 	bsr      	0x6b14	// 6b14 <__udivsi3>
    22ba:	75d9      	zexth      	r7, r6
    22bc:	9861      	ld.w      	r3, (r14, 0x4)
    22be:	9820      	ld.w      	r1, (r14, 0x0)
    22c0:	6c9f      	mov      	r2, r7
    22c2:	4370      	lsli      	r3, r3, 16
    22c4:	4930      	lsri      	r1, r1, 16
    22c6:	7c80      	mult      	r2, r0
    22c8:	6cc4      	or      	r3, r1
    22ca:	648c      	cmphs      	r3, r2
    22cc:	6d43      	mov      	r5, r0
    22ce:	0808      	bt      	0x22de	// 22de <__udivdi3+0x82>
    22d0:	60d8      	addu      	r3, r6
    22d2:	658c      	cmphs      	r3, r6
    22d4:	5823      	subi      	r1, r0, 1
    22d6:	0c03      	bf      	0x22dc	// 22dc <__udivdi3+0x80>
    22d8:	648c      	cmphs      	r3, r2
    22da:	0d8e      	bf      	0x25f6	// 25f6 <__udivdi3+0x39a>
    22dc:	6d47      	mov      	r5, r1
    22de:	60ca      	subu      	r3, r2
    22e0:	6c53      	mov      	r1, r4
    22e2:	6c0f      	mov      	r0, r3
    22e4:	b862      	st.w      	r3, (r14, 0x8)
    22e6:	e000243b 	bsr      	0x6b5c	// 6b5c <__umodsi3>
    22ea:	9862      	ld.w      	r3, (r14, 0x8)
    22ec:	b801      	st.w      	r0, (r14, 0x4)
    22ee:	6c53      	mov      	r1, r4
    22f0:	6c0f      	mov      	r0, r3
    22f2:	e0002411 	bsr      	0x6b14	// 6b14 <__udivsi3>
    22f6:	9841      	ld.w      	r2, (r14, 0x4)
    22f8:	d86e1000 	ld.h      	r3, (r14, 0x0)
    22fc:	4250      	lsli      	r2, r2, 16
    22fe:	74cd      	zexth      	r3, r3
    2300:	7dc0      	mult      	r7, r0
    2302:	6c8c      	or      	r2, r3
    2304:	65c8      	cmphs      	r2, r7
    2306:	6d03      	mov      	r4, r0
    2308:	0808      	bt      	0x2318	// 2318 <__udivdi3+0xbc>
    230a:	6098      	addu      	r2, r6
    230c:	6588      	cmphs      	r2, r6
    230e:	5863      	subi      	r3, r0, 1
    2310:	0d4d      	bf      	0x25aa	// 25aa <__udivdi3+0x34e>
    2312:	65c8      	cmphs      	r2, r7
    2314:	094b      	bt      	0x25aa	// 25aa <__udivdi3+0x34e>
    2316:	2c01      	subi      	r4, 2
    2318:	4510      	lsli      	r0, r5, 16
    231a:	3700      	movi      	r7, 0
    231c:	6c10      	or      	r0, r4
    231e:	6c5f      	mov      	r1, r7
    2320:	1406      	addi      	r14, r14, 24
    2322:	1494      	pop      	r4-r7, r15
    2324:	64dc      	cmphs      	r7, r3
    2326:	0c76      	bf      	0x2412	// 2412 <__udivdi3+0x1b6>
    2328:	026a      	lrw      	r3, 0xffff	// 25fc <__udivdi3+0x3a0>
    232a:	644c      	cmphs      	r3, r1
    232c:	0878      	bt      	0x241c	// 241c <__udivdi3+0x1c0>
    232e:	0269      	lrw      	r3, 0xffffff	// 2604 <__udivdi3+0x3a8>
    2330:	644c      	cmphs      	r3, r1
    2332:	0d48      	bf      	0x25c2	// 25c2 <__udivdi3+0x366>
    2334:	3610      	movi      	r6, 16
    2336:	6cc7      	mov      	r3, r1
    2338:	70d9      	lsr      	r3, r6
    233a:	020d      	lrw      	r0, 0x8d18	// 2600 <__udivdi3+0x3a4>
    233c:	60c0      	addu      	r3, r0
    233e:	8360      	ld.b      	r3, (r3, 0x0)
    2340:	618c      	addu      	r6, r3
    2342:	3020      	movi      	r0, 32
    2344:	5879      	subu      	r3, r0, r6
    2346:	3b40      	cmpnei      	r3, 0
    2348:	b860      	st.w      	r3, (r14, 0x0)
    234a:	0878      	bt      	0x243a	// 243a <__udivdi3+0x1de>
    234c:	65c4      	cmphs      	r1, r7
    234e:	0d40      	bf      	0x25ce	// 25ce <__udivdi3+0x372>
    2350:	6490      	cmphs      	r4, r2
    2352:	6c0f      	mov      	r0, r3
    2354:	600d      	addc      	r0, r3
    2356:	3700      	movi      	r7, 0
    2358:	045f      	br      	0x2416	// 2416 <__udivdi3+0x1ba>
    235a:	3a40      	cmpnei      	r2, 0
    235c:	0808      	bt      	0x236c	// 236c <__udivdi3+0x110>
    235e:	3100      	movi      	r1, 0
    2360:	3001      	movi      	r0, 1
    2362:	b861      	st.w      	r3, (r14, 0x4)
    2364:	e00023d8 	bsr      	0x6b14	// 6b14 <__udivsi3>
    2368:	6d83      	mov      	r6, r0
    236a:	9861      	ld.w      	r3, (r14, 0x4)
    236c:	025b      	lrw      	r2, 0xffff	// 25fc <__udivdi3+0x3a0>
    236e:	6588      	cmphs      	r2, r6
    2370:	085b      	bt      	0x2426	// 2426 <__udivdi3+0x1ca>
    2372:	027a      	lrw      	r3, 0xffffff	// 2604 <__udivdi3+0x3a8>
    2374:	658c      	cmphs      	r3, r6
    2376:	0d28      	bf      	0x25c6	// 25c6 <__udivdi3+0x36a>
    2378:	3310      	movi      	r3, 16
    237a:	6c9b      	mov      	r2, r6
    237c:	023e      	lrw      	r1, 0x8d18	// 2600 <__udivdi3+0x3a4>
    237e:	708d      	lsr      	r2, r3
    2380:	6084      	addu      	r2, r1
    2382:	8240      	ld.b      	r2, (r2, 0x0)
    2384:	5a2c      	addu      	r1, r2, r3
    2386:	3220      	movi      	r2, 32
    2388:	6086      	subu      	r2, r1
    238a:	3a40      	cmpnei      	r2, 0
    238c:	08c0      	bt      	0x250c	// 250c <__udivdi3+0x2b0>
    238e:	74d9      	zexth      	r3, r6
    2390:	5f99      	subu      	r4, r7, r6
    2392:	4eb0      	lsri      	r5, r6, 16
    2394:	b861      	st.w      	r3, (r14, 0x4)
    2396:	3701      	movi      	r7, 1
    2398:	6c57      	mov      	r1, r5
    239a:	6c13      	mov      	r0, r4
    239c:	e00023e0 	bsr      	0x6b5c	// 6b5c <__umodsi3>
    23a0:	b802      	st.w      	r0, (r14, 0x8)
    23a2:	6c57      	mov      	r1, r5
    23a4:	6c13      	mov      	r0, r4
    23a6:	e00023b7 	bsr      	0x6b14	// 6b14 <__udivsi3>
    23aa:	9862      	ld.w      	r3, (r14, 0x8)
    23ac:	4330      	lsli      	r1, r3, 16
    23ae:	9860      	ld.w      	r3, (r14, 0x0)
    23b0:	9841      	ld.w      	r2, (r14, 0x4)
    23b2:	4b70      	lsri      	r3, r3, 16
    23b4:	7c80      	mult      	r2, r0
    23b6:	6cc4      	or      	r3, r1
    23b8:	648c      	cmphs      	r3, r2
    23ba:	6d03      	mov      	r4, r0
    23bc:	0808      	bt      	0x23cc	// 23cc <__udivdi3+0x170>
    23be:	60d8      	addu      	r3, r6
    23c0:	658c      	cmphs      	r3, r6
    23c2:	5823      	subi      	r1, r0, 1
    23c4:	0c03      	bf      	0x23ca	// 23ca <__udivdi3+0x16e>
    23c6:	648c      	cmphs      	r3, r2
    23c8:	0d14      	bf      	0x25f0	// 25f0 <__udivdi3+0x394>
    23ca:	6d07      	mov      	r4, r1
    23cc:	60ca      	subu      	r3, r2
    23ce:	6c57      	mov      	r1, r5
    23d0:	6c0f      	mov      	r0, r3
    23d2:	b863      	st.w      	r3, (r14, 0xc)
    23d4:	e00023c4 	bsr      	0x6b5c	// 6b5c <__umodsi3>
    23d8:	9863      	ld.w      	r3, (r14, 0xc)
    23da:	6c57      	mov      	r1, r5
    23dc:	b802      	st.w      	r0, (r14, 0x8)
    23de:	6c0f      	mov      	r0, r3
    23e0:	e000239a 	bsr      	0x6b14	// 6b14 <__udivsi3>
    23e4:	9842      	ld.w      	r2, (r14, 0x8)
    23e6:	d86e1000 	ld.h      	r3, (r14, 0x0)
    23ea:	9821      	ld.w      	r1, (r14, 0x4)
    23ec:	4250      	lsli      	r2, r2, 16
    23ee:	74cd      	zexth      	r3, r3
    23f0:	7c40      	mult      	r1, r0
    23f2:	6cc8      	or      	r3, r2
    23f4:	644c      	cmphs      	r3, r1
    23f6:	6d43      	mov      	r5, r0
    23f8:	0808      	bt      	0x2408	// 2408 <__udivdi3+0x1ac>
    23fa:	60d8      	addu      	r3, r6
    23fc:	658c      	cmphs      	r3, r6
    23fe:	5843      	subi      	r2, r0, 1
    2400:	0cd3      	bf      	0x25a6	// 25a6 <__udivdi3+0x34a>
    2402:	644c      	cmphs      	r3, r1
    2404:	08d1      	bt      	0x25a6	// 25a6 <__udivdi3+0x34a>
    2406:	2d01      	subi      	r5, 2
    2408:	4410      	lsli      	r0, r4, 16
    240a:	6c14      	or      	r0, r5
    240c:	6c5f      	mov      	r1, r7
    240e:	1406      	addi      	r14, r14, 24
    2410:	1494      	pop      	r4-r7, r15
    2412:	3700      	movi      	r7, 0
    2414:	3000      	movi      	r0, 0
    2416:	6c5f      	mov      	r1, r7
    2418:	1406      	addi      	r14, r14, 24
    241a:	1494      	pop      	r4-r7, r15
    241c:	33ff      	movi      	r3, 255
    241e:	644c      	cmphs      	r3, r1
    2420:	6583      	mvcv      	r6
    2422:	46c3      	lsli      	r6, r6, 3
    2424:	0789      	br      	0x2336	// 2336 <__udivdi3+0xda>
    2426:	32ff      	movi      	r2, 255
    2428:	6588      	cmphs      	r2, r6
    242a:	0ba8      	bt      	0x237a	// 237a <__udivdi3+0x11e>
    242c:	3308      	movi      	r3, 8
    242e:	07a6      	br      	0x237a	// 237a <__udivdi3+0x11e>
    2430:	1375      	lrw      	r3, 0xffffff	// 2604 <__udivdi3+0x3a8>
    2432:	648c      	cmphs      	r3, r2
    2434:	0ccb      	bf      	0x25ca	// 25ca <__udivdi3+0x36e>
    2436:	3310      	movi      	r3, 16
    2438:	0725      	br      	0x2282	// 2282 <__udivdi3+0x26>
    243a:	9800      	ld.w      	r0, (r14, 0x0)
    243c:	6ccb      	mov      	r3, r2
    243e:	6d4b      	mov      	r5, r2
    2440:	7040      	lsl      	r1, r0
    2442:	7140      	lsl      	r5, r0
    2444:	70d9      	lsr      	r3, r6
    2446:	6cc4      	or      	r3, r1
    2448:	b8a3      	st.w      	r5, (r14, 0xc)
    244a:	6d53      	mov      	r5, r4
    244c:	6c4f      	mov      	r1, r3
    244e:	7159      	lsr      	r5, r6
    2450:	6cdf      	mov      	r3, r7
    2452:	71c0      	lsl      	r7, r0
    2454:	6d5c      	or      	r5, r7
    2456:	70d9      	lsr      	r3, r6
    2458:	b8a1      	st.w      	r5, (r14, 0x4)
    245a:	49b0      	lsri      	r5, r1, 16
    245c:	b822      	st.w      	r1, (r14, 0x8)
    245e:	75c5      	zexth      	r7, r1
    2460:	6c0f      	mov      	r0, r3
    2462:	6c57      	mov      	r1, r5
    2464:	b864      	st.w      	r3, (r14, 0x10)
    2466:	e000237b 	bsr      	0x6b5c	// 6b5c <__umodsi3>
    246a:	9864      	ld.w      	r3, (r14, 0x10)
    246c:	6d83      	mov      	r6, r0
    246e:	6c57      	mov      	r1, r5
    2470:	6c0f      	mov      	r0, r3
    2472:	e0002351 	bsr      	0x6b14	// 6b14 <__udivsi3>
    2476:	6c5f      	mov      	r1, r7
    2478:	7c40      	mult      	r1, r0
    247a:	6c87      	mov      	r2, r1
    247c:	4630      	lsli      	r1, r6, 16
    247e:	98c1      	ld.w      	r6, (r14, 0x4)
    2480:	4ed0      	lsri      	r6, r6, 16
    2482:	6d84      	or      	r6, r1
    2484:	6498      	cmphs      	r6, r2
    2486:	6cc3      	mov      	r3, r0
    2488:	0807      	bt      	0x2496	// 2496 <__udivdi3+0x23a>
    248a:	5823      	subi      	r1, r0, 1
    248c:	9802      	ld.w      	r0, (r14, 0x8)
    248e:	6180      	addu      	r6, r0
    2490:	6418      	cmphs      	r6, r0
    2492:	08a6      	bt      	0x25de	// 25de <__udivdi3+0x382>
    2494:	6cc7      	mov      	r3, r1
    2496:	618a      	subu      	r6, r2
    2498:	6c57      	mov      	r1, r5
    249a:	6c1b      	mov      	r0, r6
    249c:	b865      	st.w      	r3, (r14, 0x14)
    249e:	e000235f 	bsr      	0x6b5c	// 6b5c <__umodsi3>
    24a2:	b804      	st.w      	r0, (r14, 0x10)
    24a4:	6c57      	mov      	r1, r5
    24a6:	6c1b      	mov      	r0, r6
    24a8:	e0002336 	bsr      	0x6b14	// 6b14 <__udivsi3>
    24ac:	9864      	ld.w      	r3, (r14, 0x10)
    24ae:	6c9f      	mov      	r2, r7
    24b0:	43f0      	lsli      	r7, r3, 16
    24b2:	d86e1002 	ld.h      	r3, (r14, 0x4)
    24b6:	744d      	zexth      	r1, r3
    24b8:	7c80      	mult      	r2, r0
    24ba:	6dc4      	or      	r7, r1
    24bc:	649c      	cmphs      	r7, r2
    24be:	9865      	ld.w      	r3, (r14, 0x14)
    24c0:	0807      	bt      	0x24ce	// 24ce <__udivdi3+0x272>
    24c2:	98a2      	ld.w      	r5, (r14, 0x8)
    24c4:	61d4      	addu      	r7, r5
    24c6:	655c      	cmphs      	r7, r5
    24c8:	5823      	subi      	r1, r0, 1
    24ca:	0885      	bt      	0x25d4	// 25d4 <__udivdi3+0x378>
    24cc:	6c07      	mov      	r0, r1
    24ce:	4370      	lsli      	r3, r3, 16
    24d0:	6c0c      	or      	r0, r3
    24d2:	74c1      	zexth      	r3, r0
    24d4:	61ca      	subu      	r7, r2
    24d6:	9843      	ld.w      	r2, (r14, 0xc)
    24d8:	7549      	zexth      	r5, r2
    24da:	4830      	lsri      	r1, r0, 16
    24dc:	4a50      	lsri      	r2, r2, 16
    24de:	6d8f      	mov      	r6, r3
    24e0:	7d94      	mult      	r6, r5
    24e2:	7cc8      	mult      	r3, r2
    24e4:	7d44      	mult      	r5, r1
    24e6:	60d4      	addu      	r3, r5
    24e8:	7c48      	mult      	r1, r2
    24ea:	4e50      	lsri      	r2, r6, 16
    24ec:	60c8      	addu      	r3, r2
    24ee:	654c      	cmphs      	r3, r5
    24f0:	0804      	bt      	0x24f8	// 24f8 <__udivdi3+0x29c>
    24f2:	3280      	movi      	r2, 128
    24f4:	4249      	lsli      	r2, r2, 9
    24f6:	6048      	addu      	r1, r2
    24f8:	4b50      	lsri      	r2, r3, 16
    24fa:	6048      	addu      	r1, r2
    24fc:	645c      	cmphs      	r7, r1
    24fe:	0c5f      	bf      	0x25bc	// 25bc <__udivdi3+0x360>
    2500:	645e      	cmpne      	r7, r1
    2502:	0c56      	bf      	0x25ae	// 25ae <__udivdi3+0x352>
    2504:	3700      	movi      	r7, 0
    2506:	6c5f      	mov      	r1, r7
    2508:	1406      	addi      	r14, r14, 24
    250a:	1494      	pop      	r4-r7, r15
    250c:	6d53      	mov      	r5, r4
    250e:	6cdf      	mov      	r3, r7
    2510:	7145      	lsr      	r5, r1
    2512:	71c8      	lsl      	r7, r2
    2514:	7188      	lsl      	r6, r2
    2516:	6d5c      	or      	r5, r7
    2518:	70c5      	lsr      	r3, r1
    251a:	6dd7      	mov      	r7, r5
    251c:	b8a3      	st.w      	r5, (r14, 0xc)
    251e:	4eb0      	lsri      	r5, r6, 16
    2520:	7108      	lsl      	r4, r2
    2522:	6c57      	mov      	r1, r5
    2524:	7499      	zexth      	r2, r6
    2526:	6c0f      	mov      	r0, r3
    2528:	b841      	st.w      	r2, (r14, 0x4)
    252a:	b880      	st.w      	r4, (r14, 0x0)
    252c:	b862      	st.w      	r3, (r14, 0x8)
    252e:	e0002317 	bsr      	0x6b5c	// 6b5c <__umodsi3>
    2532:	9862      	ld.w      	r3, (r14, 0x8)
    2534:	6d03      	mov      	r4, r0
    2536:	6c57      	mov      	r1, r5
    2538:	6c0f      	mov      	r0, r3
    253a:	e00022ed 	bsr      	0x6b14	// 6b14 <__udivsi3>
    253e:	6cc3      	mov      	r3, r0
    2540:	7499      	zexth      	r2, r6
    2542:	7cc8      	mult      	r3, r2
    2544:	4450      	lsli      	r2, r4, 16
    2546:	4f90      	lsri      	r4, r7, 16
    2548:	6d08      	or      	r4, r2
    254a:	64d0      	cmphs      	r4, r3
    254c:	6c43      	mov      	r1, r0
    254e:	b802      	st.w      	r0, (r14, 0x8)
    2550:	080b      	bt      	0x2566	// 2566 <__udivdi3+0x30a>
    2552:	6118      	addu      	r4, r6
    2554:	6c87      	mov      	r2, r1
    2556:	6590      	cmphs      	r4, r6
    2558:	2a00      	subi      	r2, 1
    255a:	0c49      	bf      	0x25ec	// 25ec <__udivdi3+0x390>
    255c:	64d0      	cmphs      	r4, r3
    255e:	0847      	bt      	0x25ec	// 25ec <__udivdi3+0x390>
    2560:	2a00      	subi      	r2, 1
    2562:	b842      	st.w      	r2, (r14, 0x8)
    2564:	6118      	addu      	r4, r6
    2566:	610e      	subu      	r4, r3
    2568:	6c57      	mov      	r1, r5
    256a:	6c13      	mov      	r0, r4
    256c:	e00022f8 	bsr      	0x6b5c	// 6b5c <__umodsi3>
    2570:	6dc3      	mov      	r7, r0
    2572:	6c57      	mov      	r1, r5
    2574:	6c13      	mov      	r0, r4
    2576:	e00022cf 	bsr      	0x6b14	// 6b14 <__udivsi3>
    257a:	d84e1006 	ld.h      	r2, (r14, 0xc)
    257e:	74d9      	zexth      	r3, r6
    2580:	47f0      	lsli      	r7, r7, 16
    2582:	7509      	zexth      	r4, r2
    2584:	7cc0      	mult      	r3, r0
    2586:	6dd0      	or      	r7, r4
    2588:	64dc      	cmphs      	r7, r3
    258a:	0809      	bt      	0x259c	// 259c <__udivdi3+0x340>
    258c:	61d8      	addu      	r7, r6
    258e:	659c      	cmphs      	r7, r6
    2590:	5843      	subi      	r2, r0, 1
    2592:	0c2b      	bf      	0x25e8	// 25e8 <__udivdi3+0x38c>
    2594:	64dc      	cmphs      	r7, r3
    2596:	0829      	bt      	0x25e8	// 25e8 <__udivdi3+0x38c>
    2598:	2801      	subi      	r0, 2
    259a:	61d8      	addu      	r7, r6
    259c:	5f8d      	subu      	r4, r7, r3
    259e:	9862      	ld.w      	r3, (r14, 0x8)
    25a0:	43f0      	lsli      	r7, r3, 16
    25a2:	6dc0      	or      	r7, r0
    25a4:	06fa      	br      	0x2398	// 2398 <__udivdi3+0x13c>
    25a6:	6d4b      	mov      	r5, r2
    25a8:	0730      	br      	0x2408	// 2408 <__udivdi3+0x1ac>
    25aa:	6d0f      	mov      	r4, r3
    25ac:	06b6      	br      	0x2318	// 2318 <__udivdi3+0xbc>
    25ae:	9840      	ld.w      	r2, (r14, 0x0)
    25b0:	4370      	lsli      	r3, r3, 16
    25b2:	7599      	zexth      	r6, r6
    25b4:	7108      	lsl      	r4, r2
    25b6:	60d8      	addu      	r3, r6
    25b8:	64d0      	cmphs      	r4, r3
    25ba:	0ba5      	bt      	0x2504	// 2504 <__udivdi3+0x2a8>
    25bc:	2800      	subi      	r0, 1
    25be:	3700      	movi      	r7, 0
    25c0:	07a3      	br      	0x2506	// 2506 <__udivdi3+0x2aa>
    25c2:	3618      	movi      	r6, 24
    25c4:	06b9      	br      	0x2336	// 2336 <__udivdi3+0xda>
    25c6:	3318      	movi      	r3, 24
    25c8:	06d9      	br      	0x237a	// 237a <__udivdi3+0x11e>
    25ca:	3318      	movi      	r3, 24
    25cc:	065b      	br      	0x2282	// 2282 <__udivdi3+0x26>
    25ce:	3700      	movi      	r7, 0
    25d0:	3001      	movi      	r0, 1
    25d2:	0722      	br      	0x2416	// 2416 <__udivdi3+0x1ba>
    25d4:	649c      	cmphs      	r7, r2
    25d6:	0b7b      	bt      	0x24cc	// 24cc <__udivdi3+0x270>
    25d8:	2801      	subi      	r0, 2
    25da:	61d4      	addu      	r7, r5
    25dc:	0779      	br      	0x24ce	// 24ce <__udivdi3+0x272>
    25de:	6498      	cmphs      	r6, r2
    25e0:	0b5a      	bt      	0x2494	// 2494 <__udivdi3+0x238>
    25e2:	2b01      	subi      	r3, 2
    25e4:	6180      	addu      	r6, r0
    25e6:	0758      	br      	0x2496	// 2496 <__udivdi3+0x23a>
    25e8:	6c0b      	mov      	r0, r2
    25ea:	07d9      	br      	0x259c	// 259c <__udivdi3+0x340>
    25ec:	b842      	st.w      	r2, (r14, 0x8)
    25ee:	07bc      	br      	0x2566	// 2566 <__udivdi3+0x30a>
    25f0:	2c01      	subi      	r4, 2
    25f2:	60d8      	addu      	r3, r6
    25f4:	06ec      	br      	0x23cc	// 23cc <__udivdi3+0x170>
    25f6:	2d01      	subi      	r5, 2
    25f8:	60d8      	addu      	r3, r6
    25fa:	0672      	br      	0x22de	// 22de <__udivdi3+0x82>
    25fc:	0000ffff 	.long	0x0000ffff
    2600:	00008d18 	.long	0x00008d18
    2604:	00ffffff 	.long	0x00ffffff

00002608 <__umoddi3>:
    2608:	14d4      	push      	r4-r7, r15
    260a:	1427      	subi      	r14, r14, 28
    260c:	6d07      	mov      	r4, r1
    260e:	6c4f      	mov      	r1, r3
    2610:	6d43      	mov      	r5, r0
    2612:	3940      	cmpnei      	r1, 0
    2614:	6dcf      	mov      	r7, r3
    2616:	6c0b      	mov      	r0, r2
    2618:	b8a0      	st.w      	r5, (r14, 0x0)
    261a:	6cd3      	mov      	r3, r4
    261c:	085a      	bt      	0x26d0	// 26d0 <__umoddi3+0xc8>
    261e:	6490      	cmphs      	r4, r2
    2620:	0877      	bt      	0x270e	// 270e <__umoddi3+0x106>
    2622:	0120      	lrw      	r1, 0xffff	// 299c <__umoddi3+0x394>
    2624:	6484      	cmphs      	r1, r2
    2626:	0cd2      	bf      	0x27ca	// 27ca <__umoddi3+0x1c2>
    2628:	31ff      	movi      	r1, 255
    262a:	6484      	cmphs      	r1, r2
    262c:	0802      	bt      	0x2630	// 2630 <__umoddi3+0x28>
    262e:	3708      	movi      	r7, 8
    2630:	6c43      	mov      	r1, r0
    2632:	705d      	lsr      	r1, r7
    2634:	01c4      	lrw      	r6, 0x8d18	// 29a0 <__umoddi3+0x398>
    2636:	6058      	addu      	r1, r6
    2638:	8120      	ld.b      	r1, (r1, 0x0)
    263a:	61c4      	addu      	r7, r1
    263c:	3120      	movi      	r1, 32
    263e:	605e      	subu      	r1, r7
    2640:	3940      	cmpnei      	r1, 0
    2642:	b821      	st.w      	r1, (r14, 0x4)
    2644:	0c09      	bf      	0x2656	// 2656 <__umoddi3+0x4e>
    2646:	6cd7      	mov      	r3, r5
    2648:	6c83      	mov      	r2, r0
    264a:	7104      	lsl      	r4, r1
    264c:	70dd      	lsr      	r3, r7
    264e:	7144      	lsl      	r5, r1
    2650:	7084      	lsl      	r2, r1
    2652:	6cd0      	or      	r3, r4
    2654:	b8a0      	st.w      	r5, (r14, 0x0)
    2656:	4a90      	lsri      	r4, r2, 16
    2658:	6c53      	mov      	r1, r4
    265a:	6c0f      	mov      	r0, r3
    265c:	75c9      	zexth      	r7, r2
    265e:	b843      	st.w      	r2, (r14, 0xc)
    2660:	b862      	st.w      	r3, (r14, 0x8)
    2662:	e000227d 	bsr      	0x6b5c	// 6b5c <__umodsi3>
    2666:	9862      	ld.w      	r3, (r14, 0x8)
    2668:	6d43      	mov      	r5, r0
    266a:	6c53      	mov      	r1, r4
    266c:	6c0f      	mov      	r0, r3
    266e:	e0002253 	bsr      	0x6b14	// 6b14 <__udivsi3>
    2672:	9840      	ld.w      	r2, (r14, 0x0)
    2674:	4570      	lsli      	r3, r5, 16
    2676:	4ab0      	lsri      	r5, r2, 16
    2678:	7c1c      	mult      	r0, r7
    267a:	6cd4      	or      	r3, r5
    267c:	640c      	cmphs      	r3, r0
    267e:	9843      	ld.w      	r2, (r14, 0xc)
    2680:	0806      	bt      	0x268c	// 268c <__umoddi3+0x84>
    2682:	60c8      	addu      	r3, r2
    2684:	648c      	cmphs      	r3, r2
    2686:	0c03      	bf      	0x268c	// 268c <__umoddi3+0x84>
    2688:	640c      	cmphs      	r3, r0
    268a:	0d7d      	bf      	0x2984	// 2984 <__umoddi3+0x37c>
    268c:	60c2      	subu      	r3, r0
    268e:	6c53      	mov      	r1, r4
    2690:	6c0f      	mov      	r0, r3
    2692:	b843      	st.w      	r2, (r14, 0xc)
    2694:	b862      	st.w      	r3, (r14, 0x8)
    2696:	e0002263 	bsr      	0x6b5c	// 6b5c <__umodsi3>
    269a:	9862      	ld.w      	r3, (r14, 0x8)
    269c:	6d43      	mov      	r5, r0
    269e:	6c53      	mov      	r1, r4
    26a0:	6c0f      	mov      	r0, r3
    26a2:	e0002239 	bsr      	0x6b14	// 6b14 <__udivsi3>
    26a6:	d86e1000 	ld.h      	r3, (r14, 0x0)
    26aa:	7dc0      	mult      	r7, r0
    26ac:	45b0      	lsli      	r5, r5, 16
    26ae:	740d      	zexth      	r0, r3
    26b0:	6d40      	or      	r5, r0
    26b2:	65d4      	cmphs      	r5, r7
    26b4:	0807      	bt      	0x26c2	// 26c2 <__umoddi3+0xba>
    26b6:	9843      	ld.w      	r2, (r14, 0xc)
    26b8:	6148      	addu      	r5, r2
    26ba:	6494      	cmphs      	r5, r2
    26bc:	0c03      	bf      	0x26c2	// 26c2 <__umoddi3+0xba>
    26be:	65d4      	cmphs      	r5, r7
    26c0:	0d5e      	bf      	0x297c	// 297c <__umoddi3+0x374>
    26c2:	615e      	subu      	r5, r7
    26c4:	6c17      	mov      	r0, r5
    26c6:	9861      	ld.w      	r3, (r14, 0x4)
    26c8:	700d      	lsr      	r0, r3
    26ca:	3100      	movi      	r1, 0
    26cc:	1407      	addi      	r14, r14, 28
    26ce:	1494      	pop      	r4-r7, r15
    26d0:	6450      	cmphs      	r4, r1
    26d2:	0c6e      	bf      	0x27ae	// 27ae <__umoddi3+0x1a6>
    26d4:	024d      	lrw      	r2, 0xffff	// 299c <__umoddi3+0x394>
    26d6:	6448      	cmphs      	r2, r1
    26d8:	086f      	bt      	0x27b6	// 27b6 <__umoddi3+0x1ae>
    26da:	024c      	lrw      	r2, 0xffffff	// 29a4 <__umoddi3+0x39c>
    26dc:	6448      	cmphs      	r2, r1
    26de:	0d3f      	bf      	0x295c	// 295c <__umoddi3+0x354>
    26e0:	3610      	movi      	r6, 16
    26e2:	6c87      	mov      	r2, r1
    26e4:	7099      	lsr      	r2, r6
    26e6:	02f0      	lrw      	r7, 0x8d18	// 29a0 <__umoddi3+0x398>
    26e8:	609c      	addu      	r2, r7
    26ea:	8240      	ld.b      	r2, (r2, 0x0)
    26ec:	6188      	addu      	r6, r2
    26ee:	3720      	movi      	r7, 32
    26f0:	61da      	subu      	r7, r6
    26f2:	3f40      	cmpnei      	r7, 0
    26f4:	0870      	bt      	0x27d4	// 27d4 <__umoddi3+0x1cc>
    26f6:	6504      	cmphs      	r1, r4
    26f8:	0c03      	bf      	0x26fe	// 26fe <__umoddi3+0xf6>
    26fa:	6414      	cmphs      	r5, r0
    26fc:	0d46      	bf      	0x2988	// 2988 <__umoddi3+0x380>
    26fe:	5d01      	subu      	r0, r5, r0
    2700:	6414      	cmphs      	r5, r0
    2702:	6106      	subu      	r4, r1
    2704:	6483      	mvcv      	r2
    2706:	5c69      	subu      	r3, r4, r2
    2708:	6c4f      	mov      	r1, r3
    270a:	1407      	addi      	r14, r14, 28
    270c:	1494      	pop      	r4-r7, r15
    270e:	3a40      	cmpnei      	r2, 0
    2710:	0806      	bt      	0x271c	// 271c <__umoddi3+0x114>
    2712:	3100      	movi      	r1, 0
    2714:	3001      	movi      	r0, 1
    2716:	e00021ff 	bsr      	0x6b14	// 6b14 <__udivsi3>
    271a:	6c83      	mov      	r2, r0
    271c:	027f      	lrw      	r3, 0xffff	// 299c <__umoddi3+0x394>
    271e:	648c      	cmphs      	r3, r2
    2720:	0850      	bt      	0x27c0	// 27c0 <__umoddi3+0x1b8>
    2722:	027e      	lrw      	r3, 0xffffff	// 29a4 <__umoddi3+0x39c>
    2724:	648c      	cmphs      	r3, r2
    2726:	0d1d      	bf      	0x2960	// 2960 <__umoddi3+0x358>
    2728:	3710      	movi      	r7, 16
    272a:	6ccb      	mov      	r3, r2
    272c:	70dd      	lsr      	r3, r7
    272e:	0322      	lrw      	r1, 0x8d18	// 29a0 <__umoddi3+0x398>
    2730:	60c4      	addu      	r3, r1
    2732:	8360      	ld.b      	r3, (r3, 0x0)
    2734:	61cc      	addu      	r7, r3
    2736:	3320      	movi      	r3, 32
    2738:	60de      	subu      	r3, r7
    273a:	3b40      	cmpnei      	r3, 0
    273c:	b861      	st.w      	r3, (r14, 0x4)
    273e:	08c2      	bt      	0x28c2	// 28c2 <__umoddi3+0x2ba>
    2740:	74c9      	zexth      	r3, r2
    2742:	610a      	subu      	r4, r2
    2744:	4af0      	lsri      	r7, r2, 16
    2746:	6d8f      	mov      	r6, r3
    2748:	6c5f      	mov      	r1, r7
    274a:	6c13      	mov      	r0, r4
    274c:	b842      	st.w      	r2, (r14, 0x8)
    274e:	e0002207 	bsr      	0x6b5c	// 6b5c <__umodsi3>
    2752:	6d43      	mov      	r5, r0
    2754:	6c5f      	mov      	r1, r7
    2756:	6c13      	mov      	r0, r4
    2758:	e00021de 	bsr      	0x6b14	// 6b14 <__udivsi3>
    275c:	9860      	ld.w      	r3, (r14, 0x0)
    275e:	4590      	lsli      	r4, r5, 16
    2760:	4bb0      	lsri      	r5, r3, 16
    2762:	7c18      	mult      	r0, r6
    2764:	6d14      	or      	r4, r5
    2766:	6410      	cmphs      	r4, r0
    2768:	9842      	ld.w      	r2, (r14, 0x8)
    276a:	0806      	bt      	0x2776	// 2776 <__umoddi3+0x16e>
    276c:	6108      	addu      	r4, r2
    276e:	6490      	cmphs      	r4, r2
    2770:	0c03      	bf      	0x2776	// 2776 <__umoddi3+0x16e>
    2772:	6410      	cmphs      	r4, r0
    2774:	0d06      	bf      	0x2980	// 2980 <__umoddi3+0x378>
    2776:	6102      	subu      	r4, r0
    2778:	6c5f      	mov      	r1, r7
    277a:	6c13      	mov      	r0, r4
    277c:	b842      	st.w      	r2, (r14, 0x8)
    277e:	e00021ef 	bsr      	0x6b5c	// 6b5c <__umodsi3>
    2782:	6d43      	mov      	r5, r0
    2784:	6c5f      	mov      	r1, r7
    2786:	6c13      	mov      	r0, r4
    2788:	e00021c6 	bsr      	0x6b14	// 6b14 <__udivsi3>
    278c:	d86e1000 	ld.h      	r3, (r14, 0x0)
    2790:	7c18      	mult      	r0, r6
    2792:	45b0      	lsli      	r5, r5, 16
    2794:	758d      	zexth      	r6, r3
    2796:	6d58      	or      	r5, r6
    2798:	6414      	cmphs      	r5, r0
    279a:	0808      	bt      	0x27aa	// 27aa <__umoddi3+0x1a2>
    279c:	9842      	ld.w      	r2, (r14, 0x8)
    279e:	6148      	addu      	r5, r2
    27a0:	6494      	cmphs      	r5, r2
    27a2:	0c04      	bf      	0x27aa	// 27aa <__umoddi3+0x1a2>
    27a4:	6414      	cmphs      	r5, r0
    27a6:	0802      	bt      	0x27aa	// 27aa <__umoddi3+0x1a2>
    27a8:	6148      	addu      	r5, r2
    27aa:	6142      	subu      	r5, r0
    27ac:	078c      	br      	0x26c4	// 26c4 <__umoddi3+0xbc>
    27ae:	6c17      	mov      	r0, r5
    27b0:	6c53      	mov      	r1, r4
    27b2:	1407      	addi      	r14, r14, 28
    27b4:	1494      	pop      	r4-r7, r15
    27b6:	32ff      	movi      	r2, 255
    27b8:	6448      	cmphs      	r2, r1
    27ba:	6583      	mvcv      	r6
    27bc:	46c3      	lsli      	r6, r6, 3
    27be:	0792      	br      	0x26e2	// 26e2 <__umoddi3+0xda>
    27c0:	33ff      	movi      	r3, 255
    27c2:	648c      	cmphs      	r3, r2
    27c4:	0bb3      	bt      	0x272a	// 272a <__umoddi3+0x122>
    27c6:	3708      	movi      	r7, 8
    27c8:	07b1      	br      	0x272a	// 272a <__umoddi3+0x122>
    27ca:	1337      	lrw      	r1, 0xffffff	// 29a4 <__umoddi3+0x39c>
    27cc:	6484      	cmphs      	r1, r2
    27ce:	0ccb      	bf      	0x2964	// 2964 <__umoddi3+0x35c>
    27d0:	3710      	movi      	r7, 16
    27d2:	072f      	br      	0x2630	// 2630 <__umoddi3+0x28>
    27d4:	6cc3      	mov      	r3, r0
    27d6:	705c      	lsl      	r1, r7
    27d8:	70d9      	lsr      	r3, r6
    27da:	6cc4      	or      	r3, r1
    27dc:	6c57      	mov      	r1, r5
    27de:	6c93      	mov      	r2, r4
    27e0:	7059      	lsr      	r1, r6
    27e2:	711c      	lsl      	r4, r7
    27e4:	7099      	lsr      	r2, r6
    27e6:	6c50      	or      	r1, r4
    27e8:	701c      	lsl      	r0, r7
    27ea:	4b90      	lsri      	r4, r3, 16
    27ec:	715c      	lsl      	r5, r7
    27ee:	b803      	st.w      	r0, (r14, 0xc)
    27f0:	b820      	st.w      	r1, (r14, 0x0)
    27f2:	b8a4      	st.w      	r5, (r14, 0x10)
    27f4:	6c53      	mov      	r1, r4
    27f6:	754d      	zexth      	r5, r3
    27f8:	6c0b      	mov      	r0, r2
    27fa:	b862      	st.w      	r3, (r14, 0x8)
    27fc:	b8a1      	st.w      	r5, (r14, 0x4)
    27fe:	b846      	st.w      	r2, (r14, 0x18)
    2800:	e00021ae 	bsr      	0x6b5c	// 6b5c <__umodsi3>
    2804:	9846      	ld.w      	r2, (r14, 0x18)
    2806:	b805      	st.w      	r0, (r14, 0x14)
    2808:	6c53      	mov      	r1, r4
    280a:	6c0b      	mov      	r0, r2
    280c:	e0002184 	bsr      	0x6b14	// 6b14 <__udivsi3>
    2810:	9841      	ld.w      	r2, (r14, 0x4)
    2812:	7c80      	mult      	r2, r0
    2814:	9865      	ld.w      	r3, (r14, 0x14)
    2816:	6d43      	mov      	r5, r0
    2818:	9800      	ld.w      	r0, (r14, 0x0)
    281a:	4330      	lsli      	r1, r3, 16
    281c:	4870      	lsri      	r3, r0, 16
    281e:	6cc4      	or      	r3, r1
    2820:	648c      	cmphs      	r3, r2
    2822:	0807      	bt      	0x2830	// 2830 <__umoddi3+0x228>
    2824:	9802      	ld.w      	r0, (r14, 0x8)
    2826:	60c0      	addu      	r3, r0
    2828:	640c      	cmphs      	r3, r0
    282a:	5d23      	subi      	r1, r5, 1
    282c:	08a3      	bt      	0x2972	// 2972 <__umoddi3+0x36a>
    282e:	6d47      	mov      	r5, r1
    2830:	60ca      	subu      	r3, r2
    2832:	6c53      	mov      	r1, r4
    2834:	6c0f      	mov      	r0, r3
    2836:	b866      	st.w      	r3, (r14, 0x18)
    2838:	e0002192 	bsr      	0x6b5c	// 6b5c <__umodsi3>
    283c:	9866      	ld.w      	r3, (r14, 0x18)
    283e:	6c53      	mov      	r1, r4
    2840:	b805      	st.w      	r0, (r14, 0x14)
    2842:	6c0f      	mov      	r0, r3
    2844:	e0002168 	bsr      	0x6b14	// 6b14 <__udivsi3>
    2848:	9845      	ld.w      	r2, (r14, 0x14)
    284a:	d86e1000 	ld.h      	r3, (r14, 0x0)
    284e:	9821      	ld.w      	r1, (r14, 0x4)
    2850:	4250      	lsli      	r2, r2, 16
    2852:	750d      	zexth      	r4, r3
    2854:	7c40      	mult      	r1, r0
    2856:	6c90      	or      	r2, r4
    2858:	6448      	cmphs      	r2, r1
    285a:	0807      	bt      	0x2868	// 2868 <__umoddi3+0x260>
    285c:	9882      	ld.w      	r4, (r14, 0x8)
    285e:	6090      	addu      	r2, r4
    2860:	6508      	cmphs      	r2, r4
    2862:	5863      	subi      	r3, r0, 1
    2864:	0882      	bt      	0x2968	// 2968 <__umoddi3+0x360>
    2866:	6c0f      	mov      	r0, r3
    2868:	45b0      	lsli      	r5, r5, 16
    286a:	6d40      	or      	r5, r0
    286c:	74d5      	zexth      	r3, r5
    286e:	9803      	ld.w      	r0, (r14, 0xc)
    2870:	4db0      	lsri      	r5, r5, 16
    2872:	6d0f      	mov      	r4, r3
    2874:	6086      	subu      	r2, r1
    2876:	7441      	zexth      	r1, r0
    2878:	4810      	lsri      	r0, r0, 16
    287a:	7d04      	mult      	r4, r1
    287c:	7cc0      	mult      	r3, r0
    287e:	7c54      	mult      	r1, r5
    2880:	60c4      	addu      	r3, r1
    2882:	7d40      	mult      	r5, r0
    2884:	4c10      	lsri      	r0, r4, 16
    2886:	60c0      	addu      	r3, r0
    2888:	644c      	cmphs      	r3, r1
    288a:	0804      	bt      	0x2892	// 2892 <__umoddi3+0x28a>
    288c:	3180      	movi      	r1, 128
    288e:	4129      	lsli      	r1, r1, 9
    2890:	6144      	addu      	r5, r1
    2892:	4b30      	lsri      	r1, r3, 16
    2894:	6144      	addu      	r5, r1
    2896:	4370      	lsli      	r3, r3, 16
    2898:	7511      	zexth      	r4, r4
    289a:	6548      	cmphs      	r2, r5
    289c:	60d0      	addu      	r3, r4
    289e:	0c56      	bf      	0x294a	// 294a <__umoddi3+0x342>
    28a0:	654a      	cmpne      	r2, r5
    28a2:	0c76      	bf      	0x298e	// 298e <__umoddi3+0x386>
    28a4:	5a35      	subu      	r1, r2, r5
    28a6:	6c0f      	mov      	r0, r3
    28a8:	9864      	ld.w      	r3, (r14, 0x10)
    28aa:	5b01      	subu      	r0, r3, r0
    28ac:	640c      	cmphs      	r3, r0
    28ae:	64c3      	mvcv      	r3
    28b0:	598d      	subu      	r4, r1, r3
    28b2:	6d53      	mov      	r5, r4
    28b4:	7158      	lsl      	r5, r6
    28b6:	701d      	lsr      	r0, r7
    28b8:	6c53      	mov      	r1, r4
    28ba:	6c14      	or      	r0, r5
    28bc:	705d      	lsr      	r1, r7
    28be:	1407      	addi      	r14, r14, 28
    28c0:	1494      	pop      	r4-r7, r15
    28c2:	9801      	ld.w      	r0, (r14, 0x4)
    28c4:	6c57      	mov      	r1, r5
    28c6:	6cd3      	mov      	r3, r4
    28c8:	705d      	lsr      	r1, r7
    28ca:	7100      	lsl      	r4, r0
    28cc:	7080      	lsl      	r2, r0
    28ce:	6c50      	or      	r1, r4
    28d0:	70dd      	lsr      	r3, r7
    28d2:	6d07      	mov      	r4, r1
    28d4:	4af0      	lsri      	r7, r2, 16
    28d6:	b822      	st.w      	r1, (r14, 0x8)
    28d8:	7449      	zexth      	r1, r2
    28da:	7140      	lsl      	r5, r0
    28dc:	6d87      	mov      	r6, r1
    28de:	6c0f      	mov      	r0, r3
    28e0:	6c5f      	mov      	r1, r7
    28e2:	b844      	st.w      	r2, (r14, 0x10)
    28e4:	b8a0      	st.w      	r5, (r14, 0x0)
    28e6:	b863      	st.w      	r3, (r14, 0xc)
    28e8:	e000213a 	bsr      	0x6b5c	// 6b5c <__umodsi3>
    28ec:	9863      	ld.w      	r3, (r14, 0xc)
    28ee:	6d43      	mov      	r5, r0
    28f0:	6c5f      	mov      	r1, r7
    28f2:	6c0f      	mov      	r0, r3
    28f4:	e0002110 	bsr      	0x6b14	// 6b14 <__udivsi3>
    28f8:	45b0      	lsli      	r5, r5, 16
    28fa:	4c70      	lsri      	r3, r4, 16
    28fc:	7c18      	mult      	r0, r6
    28fe:	6d4c      	or      	r5, r3
    2900:	6414      	cmphs      	r5, r0
    2902:	9844      	ld.w      	r2, (r14, 0x10)
    2904:	0807      	bt      	0x2912	// 2912 <__umoddi3+0x30a>
    2906:	6148      	addu      	r5, r2
    2908:	6494      	cmphs      	r5, r2
    290a:	0c04      	bf      	0x2912	// 2912 <__umoddi3+0x30a>
    290c:	6414      	cmphs      	r5, r0
    290e:	0802      	bt      	0x2912	// 2912 <__umoddi3+0x30a>
    2910:	6148      	addu      	r5, r2
    2912:	6142      	subu      	r5, r0
    2914:	6c5f      	mov      	r1, r7
    2916:	6c17      	mov      	r0, r5
    2918:	b843      	st.w      	r2, (r14, 0xc)
    291a:	e0002121 	bsr      	0x6b5c	// 6b5c <__umodsi3>
    291e:	6d03      	mov      	r4, r0
    2920:	6c5f      	mov      	r1, r7
    2922:	6c17      	mov      	r0, r5
    2924:	e00020f8 	bsr      	0x6b14	// 6b14 <__udivsi3>
    2928:	d86e1004 	ld.h      	r3, (r14, 0x8)
    292c:	4490      	lsli      	r4, r4, 16
    292e:	744d      	zexth      	r1, r3
    2930:	7c18      	mult      	r0, r6
    2932:	6d04      	or      	r4, r1
    2934:	6410      	cmphs      	r4, r0
    2936:	9843      	ld.w      	r2, (r14, 0xc)
    2938:	0807      	bt      	0x2946	// 2946 <__umoddi3+0x33e>
    293a:	6108      	addu      	r4, r2
    293c:	6490      	cmphs      	r4, r2
    293e:	0c04      	bf      	0x2946	// 2946 <__umoddi3+0x33e>
    2940:	6410      	cmphs      	r4, r0
    2942:	0802      	bt      	0x2946	// 2946 <__umoddi3+0x33e>
    2944:	6108      	addu      	r4, r2
    2946:	6102      	subu      	r4, r0
    2948:	0700      	br      	0x2748	// 2748 <__umoddi3+0x140>
    294a:	9823      	ld.w      	r1, (r14, 0xc)
    294c:	5b05      	subu      	r0, r3, r1
    294e:	640c      	cmphs      	r3, r0
    2950:	9822      	ld.w      	r1, (r14, 0x8)
    2952:	6146      	subu      	r5, r1
    2954:	64c3      	mvcv      	r3
    2956:	614e      	subu      	r5, r3
    2958:	5a35      	subu      	r1, r2, r5
    295a:	07a7      	br      	0x28a8	// 28a8 <__umoddi3+0x2a0>
    295c:	3618      	movi      	r6, 24
    295e:	06c2      	br      	0x26e2	// 26e2 <__umoddi3+0xda>
    2960:	3718      	movi      	r7, 24
    2962:	06e4      	br      	0x272a	// 272a <__umoddi3+0x122>
    2964:	3718      	movi      	r7, 24
    2966:	0665      	br      	0x2630	// 2630 <__umoddi3+0x28>
    2968:	6448      	cmphs      	r2, r1
    296a:	0b7e      	bt      	0x2866	// 2866 <__umoddi3+0x25e>
    296c:	2801      	subi      	r0, 2
    296e:	6090      	addu      	r2, r4
    2970:	077c      	br      	0x2868	// 2868 <__umoddi3+0x260>
    2972:	648c      	cmphs      	r3, r2
    2974:	0b5d      	bt      	0x282e	// 282e <__umoddi3+0x226>
    2976:	2d01      	subi      	r5, 2
    2978:	60c0      	addu      	r3, r0
    297a:	075b      	br      	0x2830	// 2830 <__umoddi3+0x228>
    297c:	6148      	addu      	r5, r2
    297e:	06a2      	br      	0x26c2	// 26c2 <__umoddi3+0xba>
    2980:	6108      	addu      	r4, r2
    2982:	06fa      	br      	0x2776	// 2776 <__umoddi3+0x16e>
    2984:	60c8      	addu      	r3, r2
    2986:	0683      	br      	0x268c	// 268c <__umoddi3+0x84>
    2988:	6c17      	mov      	r0, r5
    298a:	6c4f      	mov      	r1, r3
    298c:	06bf      	br      	0x270a	// 270a <__umoddi3+0x102>
    298e:	9824      	ld.w      	r1, (r14, 0x10)
    2990:	64c4      	cmphs      	r1, r3
    2992:	0fdc      	bf      	0x294a	// 294a <__umoddi3+0x342>
    2994:	6c0f      	mov      	r0, r3
    2996:	3100      	movi      	r1, 0
    2998:	0788      	br      	0x28a8	// 28a8 <__umoddi3+0x2a0>
    299a:	0000      	bkpt
    299c:	0000ffff 	.long	0x0000ffff
    29a0:	00008d18 	.long	0x00008d18
    29a4:	00ffffff 	.long	0x00ffffff

000029a8 <_fpadd_parts>:
    29a8:	14c4      	push      	r4-r7
    29aa:	1421      	subi      	r14, r14, 4
    29ac:	9060      	ld.w      	r3, (r0, 0x0)
    29ae:	3b01      	cmphsi      	r3, 2
    29b0:	0c3b      	bf      	0x2a26	// 2a26 <_fpadd_parts+0x7e>
    29b2:	9180      	ld.w      	r4, (r1, 0x0)
    29b4:	3c01      	cmphsi      	r4, 2
    29b6:	0c3a      	bf      	0x2a2a	// 2a2a <_fpadd_parts+0x82>
    29b8:	3b44      	cmpnei      	r3, 4
    29ba:	0c76      	bf      	0x2aa6	// 2aa6 <_fpadd_parts+0xfe>
    29bc:	3c44      	cmpnei      	r4, 4
    29be:	0c36      	bf      	0x2a2a	// 2a2a <_fpadd_parts+0x82>
    29c0:	3c42      	cmpnei      	r4, 2
    29c2:	0c5c      	bf      	0x2a7a	// 2a7a <_fpadd_parts+0xd2>
    29c4:	3b42      	cmpnei      	r3, 2
    29c6:	0c32      	bf      	0x2a2a	// 2a2a <_fpadd_parts+0x82>
    29c8:	90a2      	ld.w      	r5, (r0, 0x8)
    29ca:	91e2      	ld.w      	r7, (r1, 0x8)
    29cc:	5d9d      	subu      	r4, r5, r7
    29ce:	9063      	ld.w      	r3, (r0, 0xc)
    29d0:	3cdf      	btsti      	r4, 31
    29d2:	b860      	st.w      	r3, (r14, 0x0)
    29d4:	6d93      	mov      	r6, r4
    29d6:	9163      	ld.w      	r3, (r1, 0xc)
    29d8:	086f      	bt      	0x2ab6	// 2ab6 <_fpadd_parts+0x10e>
    29da:	3e3f      	cmplti      	r6, 32
    29dc:	082a      	bt      	0x2a30	// 2a30 <_fpadd_parts+0x88>
    29de:	655d      	cmplt      	r7, r5
    29e0:	0c5f      	bf      	0x2a9e	// 2a9e <_fpadd_parts+0xf6>
    29e2:	3300      	movi      	r3, 0
    29e4:	9001      	ld.w      	r0, (r0, 0x4)
    29e6:	9121      	ld.w      	r1, (r1, 0x4)
    29e8:	6442      	cmpne      	r0, r1
    29ea:	0c33      	bf      	0x2a50	// 2a50 <_fpadd_parts+0xa8>
    29ec:	3840      	cmpnei      	r0, 0
    29ee:	9820      	ld.w      	r1, (r14, 0x0)
    29f0:	0c54      	bf      	0x2a98	// 2a98 <_fpadd_parts+0xf0>
    29f2:	60c6      	subu      	r3, r1
    29f4:	3bdf      	btsti      	r3, 31
    29f6:	0863      	bt      	0x2abc	// 2abc <_fpadd_parts+0x114>
    29f8:	3100      	movi      	r1, 0
    29fa:	b221      	st.w      	r1, (r2, 0x4)
    29fc:	b2a2      	st.w      	r5, (r2, 0x8)
    29fe:	b263      	st.w      	r3, (r2, 0xc)
    2a00:	5b23      	subi      	r1, r3, 1
    2a02:	119b      	lrw      	r4, 0x3fffffff	// 2aec <_fpadd_parts+0x144>
    2a04:	6504      	cmphs      	r1, r4
    2a06:	080b      	bt      	0x2a1c	// 2a1c <_fpadd_parts+0x74>
    2a08:	9222      	ld.w      	r1, (r2, 0x8)
    2a0a:	2900      	subi      	r1, 1
    2a0c:	4361      	lsli      	r3, r3, 1
    2a0e:	5b03      	subi      	r0, r3, 1
    2a10:	6410      	cmphs      	r4, r0
    2a12:	6d47      	mov      	r5, r1
    2a14:	2900      	subi      	r1, 1
    2a16:	0bfb      	bt      	0x2a0c	// 2a0c <_fpadd_parts+0x64>
    2a18:	b263      	st.w      	r3, (r2, 0xc)
    2a1a:	b2a2      	st.w      	r5, (r2, 0x8)
    2a1c:	3103      	movi      	r1, 3
    2a1e:	3bdf      	btsti      	r3, 31
    2a20:	b220      	st.w      	r1, (r2, 0x0)
    2a22:	0821      	bt      	0x2a64	// 2a64 <_fpadd_parts+0xbc>
    2a24:	6c0b      	mov      	r0, r2
    2a26:	1401      	addi      	r14, r14, 4
    2a28:	1484      	pop      	r4-r7
    2a2a:	6c07      	mov      	r0, r1
    2a2c:	1401      	addi      	r14, r14, 4
    2a2e:	1484      	pop      	r4-r7
    2a30:	3c20      	cmplti      	r4, 1
    2a32:	084c      	bt      	0x2aca	// 2aca <_fpadd_parts+0x122>
    2a34:	3401      	movi      	r4, 1
    2a36:	7118      	lsl      	r4, r6
    2a38:	2c00      	subi      	r4, 1
    2a3a:	6dcf      	mov      	r7, r3
    2a3c:	68d0      	and      	r3, r4
    2a3e:	3b40      	cmpnei      	r3, 0
    2a40:	9001      	ld.w      	r0, (r0, 0x4)
    2a42:	3300      	movi      	r3, 0
    2a44:	9121      	ld.w      	r1, (r1, 0x4)
    2a46:	60cd      	addc      	r3, r3
    2a48:	71d9      	lsr      	r7, r6
    2a4a:	6442      	cmpne      	r0, r1
    2a4c:	6cdc      	or      	r3, r7
    2a4e:	0bcf      	bt      	0x29ec	// 29ec <_fpadd_parts+0x44>
    2a50:	9820      	ld.w      	r1, (r14, 0x0)
    2a52:	604c      	addu      	r1, r3
    2a54:	6cc7      	mov      	r3, r1
    2a56:	b223      	st.w      	r1, (r2, 0xc)
    2a58:	3bdf      	btsti      	r3, 31
    2a5a:	3103      	movi      	r1, 3
    2a5c:	b201      	st.w      	r0, (r2, 0x4)
    2a5e:	b2a2      	st.w      	r5, (r2, 0x8)
    2a60:	b220      	st.w      	r1, (r2, 0x0)
    2a62:	0fe1      	bf      	0x2a24	// 2a24 <_fpadd_parts+0x7c>
    2a64:	3001      	movi      	r0, 1
    2a66:	4b21      	lsri      	r1, r3, 1
    2a68:	68c0      	and      	r3, r0
    2a6a:	6cc4      	or      	r3, r1
    2a6c:	b263      	st.w      	r3, (r2, 0xc)
    2a6e:	9262      	ld.w      	r3, (r2, 0x8)
    2a70:	2300      	addi      	r3, 1
    2a72:	6c0b      	mov      	r0, r2
    2a74:	b262      	st.w      	r3, (r2, 0x8)
    2a76:	1401      	addi      	r14, r14, 4
    2a78:	1484      	pop      	r4-r7
    2a7a:	3b42      	cmpnei      	r3, 2
    2a7c:	0bd5      	bt      	0x2a26	// 2a26 <_fpadd_parts+0x7e>
    2a7e:	b260      	st.w      	r3, (r2, 0x0)
    2a80:	9061      	ld.w      	r3, (r0, 0x4)
    2a82:	b261      	st.w      	r3, (r2, 0x4)
    2a84:	9062      	ld.w      	r3, (r0, 0x8)
    2a86:	b262      	st.w      	r3, (r2, 0x8)
    2a88:	9063      	ld.w      	r3, (r0, 0xc)
    2a8a:	9121      	ld.w      	r1, (r1, 0x4)
    2a8c:	b263      	st.w      	r3, (r2, 0xc)
    2a8e:	9061      	ld.w      	r3, (r0, 0x4)
    2a90:	68c4      	and      	r3, r1
    2a92:	b261      	st.w      	r3, (r2, 0x4)
    2a94:	6c0b      	mov      	r0, r2
    2a96:	07c8      	br      	0x2a26	// 2a26 <_fpadd_parts+0x7e>
    2a98:	604e      	subu      	r1, r3
    2a9a:	6cc7      	mov      	r3, r1
    2a9c:	07ac      	br      	0x29f4	// 29f4 <_fpadd_parts+0x4c>
    2a9e:	3400      	movi      	r4, 0
    2aa0:	6d5f      	mov      	r5, r7
    2aa2:	b880      	st.w      	r4, (r14, 0x0)
    2aa4:	07a0      	br      	0x29e4	// 29e4 <_fpadd_parts+0x3c>
    2aa6:	3c44      	cmpnei      	r4, 4
    2aa8:	0bbf      	bt      	0x2a26	// 2a26 <_fpadd_parts+0x7e>
    2aaa:	9041      	ld.w      	r2, (r0, 0x4)
    2aac:	9161      	ld.w      	r3, (r1, 0x4)
    2aae:	64ca      	cmpne      	r2, r3
    2ab0:	0fbb      	bf      	0x2a26	// 2a26 <_fpadd_parts+0x7e>
    2ab2:	1010      	lrw      	r0, 0x8cf4	// 2af0 <_fpadd_parts+0x148>
    2ab4:	07b9      	br      	0x2a26	// 2a26 <_fpadd_parts+0x7e>
    2ab6:	3600      	movi      	r6, 0
    2ab8:	6192      	subu      	r6, r4
    2aba:	0790      	br      	0x29da	// 29da <_fpadd_parts+0x32>
    2abc:	3101      	movi      	r1, 1
    2abe:	b221      	st.w      	r1, (r2, 0x4)
    2ac0:	3100      	movi      	r1, 0
    2ac2:	596d      	subu      	r3, r1, r3
    2ac4:	b2a2      	st.w      	r5, (r2, 0x8)
    2ac6:	b263      	st.w      	r3, (r2, 0xc)
    2ac8:	079c      	br      	0x2a00	// 2a00 <_fpadd_parts+0x58>
    2aca:	3c40      	cmpnei      	r4, 0
    2acc:	0f8c      	bf      	0x29e4	// 29e4 <_fpadd_parts+0x3c>
    2ace:	3401      	movi      	r4, 1
    2ad0:	98e0      	ld.w      	r7, (r14, 0x0)
    2ad2:	7118      	lsl      	r4, r6
    2ad4:	71d9      	lsr      	r7, r6
    2ad6:	6158      	addu      	r5, r6
    2ad8:	2c00      	subi      	r4, 1
    2ada:	98c0      	ld.w      	r6, (r14, 0x0)
    2adc:	6918      	and      	r4, r6
    2ade:	3c40      	cmpnei      	r4, 0
    2ae0:	3400      	movi      	r4, 0
    2ae2:	6111      	addc      	r4, r4
    2ae4:	6dd0      	or      	r7, r4
    2ae6:	b8e0      	st.w      	r7, (r14, 0x0)
    2ae8:	077e      	br      	0x29e4	// 29e4 <_fpadd_parts+0x3c>
    2aea:	0000      	bkpt
    2aec:	3fffffff 	.long	0x3fffffff
    2af0:	00008cf4 	.long	0x00008cf4

00002af4 <__addsf3>:
    2af4:	14d0      	push      	r15
    2af6:	142e      	subi      	r14, r14, 56
    2af8:	b800      	st.w      	r0, (r14, 0x0)
    2afa:	b821      	st.w      	r1, (r14, 0x4)
    2afc:	6c3b      	mov      	r0, r14
    2afe:	1902      	addi      	r1, r14, 8
    2b00:	e0000540 	bsr      	0x3580	// 3580 <__unpack_f>
    2b04:	1906      	addi      	r1, r14, 24
    2b06:	1801      	addi      	r0, r14, 4
    2b08:	e000053c 	bsr      	0x3580	// 3580 <__unpack_f>
    2b0c:	1a0a      	addi      	r2, r14, 40
    2b0e:	1906      	addi      	r1, r14, 24
    2b10:	1802      	addi      	r0, r14, 8
    2b12:	e3ffff4b 	bsr      	0x29a8	// 29a8 <_fpadd_parts>
    2b16:	e00004d9 	bsr      	0x34c8	// 34c8 <__pack_f>
    2b1a:	140e      	addi      	r14, r14, 56
    2b1c:	1490      	pop      	r15
	...

00002b20 <__subsf3>:
    2b20:	14d0      	push      	r15
    2b22:	142e      	subi      	r14, r14, 56
    2b24:	b800      	st.w      	r0, (r14, 0x0)
    2b26:	b821      	st.w      	r1, (r14, 0x4)
    2b28:	6c3b      	mov      	r0, r14
    2b2a:	1902      	addi      	r1, r14, 8
    2b2c:	e000052a 	bsr      	0x3580	// 3580 <__unpack_f>
    2b30:	1906      	addi      	r1, r14, 24
    2b32:	1801      	addi      	r0, r14, 4
    2b34:	e0000526 	bsr      	0x3580	// 3580 <__unpack_f>
    2b38:	9867      	ld.w      	r3, (r14, 0x1c)
    2b3a:	3201      	movi      	r2, 1
    2b3c:	6cc9      	xor      	r3, r2
    2b3e:	1906      	addi      	r1, r14, 24
    2b40:	1a0a      	addi      	r2, r14, 40
    2b42:	1802      	addi      	r0, r14, 8
    2b44:	b867      	st.w      	r3, (r14, 0x1c)
    2b46:	e3ffff31 	bsr      	0x29a8	// 29a8 <_fpadd_parts>
    2b4a:	e00004bf 	bsr      	0x34c8	// 34c8 <__pack_f>
    2b4e:	140e      	addi      	r14, r14, 56
    2b50:	1490      	pop      	r15
	...

00002b54 <__divsf3>:
    2b54:	14d1      	push      	r4, r15
    2b56:	142a      	subi      	r14, r14, 40
    2b58:	b800      	st.w      	r0, (r14, 0x0)
    2b5a:	b821      	st.w      	r1, (r14, 0x4)
    2b5c:	6c3b      	mov      	r0, r14
    2b5e:	1902      	addi      	r1, r14, 8
    2b60:	e0000510 	bsr      	0x3580	// 3580 <__unpack_f>
    2b64:	1906      	addi      	r1, r14, 24
    2b66:	1801      	addi      	r0, r14, 4
    2b68:	e000050c 	bsr      	0x3580	// 3580 <__unpack_f>
    2b6c:	9862      	ld.w      	r3, (r14, 0x8)
    2b6e:	3b01      	cmphsi      	r3, 2
    2b70:	0c2c      	bf      	0x2bc8	// 2bc8 <__divsf3+0x74>
    2b72:	9826      	ld.w      	r1, (r14, 0x18)
    2b74:	3901      	cmphsi      	r1, 2
    2b76:	0c48      	bf      	0x2c06	// 2c06 <__divsf3+0xb2>
    2b78:	9843      	ld.w      	r2, (r14, 0xc)
    2b7a:	9807      	ld.w      	r0, (r14, 0x1c)
    2b7c:	6c81      	xor      	r2, r0
    2b7e:	3b44      	cmpnei      	r3, 4
    2b80:	b843      	st.w      	r2, (r14, 0xc)
    2b82:	0c28      	bf      	0x2bd2	// 2bd2 <__divsf3+0x7e>
    2b84:	3b42      	cmpnei      	r3, 2
    2b86:	0c26      	bf      	0x2bd2	// 2bd2 <__divsf3+0x7e>
    2b88:	3944      	cmpnei      	r1, 4
    2b8a:	0c2c      	bf      	0x2be2	// 2be2 <__divsf3+0x8e>
    2b8c:	3942      	cmpnei      	r1, 2
    2b8e:	0c38      	bf      	0x2bfe	// 2bfe <__divsf3+0xaa>
    2b90:	9844      	ld.w      	r2, (r14, 0x10)
    2b92:	9868      	ld.w      	r3, (r14, 0x20)
    2b94:	608e      	subu      	r2, r3
    2b96:	9809      	ld.w      	r0, (r14, 0x24)
    2b98:	9865      	ld.w      	r3, (r14, 0x14)
    2b9a:	640c      	cmphs      	r3, r0
    2b9c:	b844      	st.w      	r2, (r14, 0x10)
    2b9e:	0c1e      	bf      	0x2bda	// 2bda <__divsf3+0x86>
    2ba0:	3180      	movi      	r1, 128
    2ba2:	321f      	movi      	r2, 31
    2ba4:	3400      	movi      	r4, 0
    2ba6:	4137      	lsli      	r1, r1, 23
    2ba8:	640c      	cmphs      	r3, r0
    2baa:	0c03      	bf      	0x2bb0	// 2bb0 <__divsf3+0x5c>
    2bac:	6d04      	or      	r4, r1
    2bae:	60c2      	subu      	r3, r0
    2bb0:	2a00      	subi      	r2, 1
    2bb2:	3a40      	cmpnei      	r2, 0
    2bb4:	4921      	lsri      	r1, r1, 1
    2bb6:	4361      	lsli      	r3, r3, 1
    2bb8:	0bf8      	bt      	0x2ba8	// 2ba8 <__divsf3+0x54>
    2bba:	317f      	movi      	r1, 127
    2bbc:	6c93      	mov      	r2, r4
    2bbe:	6884      	and      	r2, r1
    2bc0:	3040      	movi      	r0, 64
    2bc2:	640a      	cmpne      	r2, r0
    2bc4:	0c14      	bf      	0x2bec	// 2bec <__divsf3+0x98>
    2bc6:	b885      	st.w      	r4, (r14, 0x14)
    2bc8:	1802      	addi      	r0, r14, 8
    2bca:	e000047f 	bsr      	0x34c8	// 34c8 <__pack_f>
    2bce:	140a      	addi      	r14, r14, 40
    2bd0:	1491      	pop      	r4, r15
    2bd2:	644e      	cmpne      	r3, r1
    2bd4:	0bfa      	bt      	0x2bc8	// 2bc8 <__divsf3+0x74>
    2bd6:	100e      	lrw      	r0, 0x8cf4	// 2c0c <__divsf3+0xb8>
    2bd8:	07f9      	br      	0x2bca	// 2bca <__divsf3+0x76>
    2bda:	2a00      	subi      	r2, 1
    2bdc:	4361      	lsli      	r3, r3, 1
    2bde:	b844      	st.w      	r2, (r14, 0x10)
    2be0:	07e0      	br      	0x2ba0	// 2ba0 <__divsf3+0x4c>
    2be2:	3300      	movi      	r3, 0
    2be4:	b865      	st.w      	r3, (r14, 0x14)
    2be6:	b864      	st.w      	r3, (r14, 0x10)
    2be8:	1802      	addi      	r0, r14, 8
    2bea:	07f0      	br      	0x2bca	// 2bca <__divsf3+0x76>
    2bec:	3080      	movi      	r0, 128
    2bee:	6810      	and      	r0, r4
    2bf0:	3840      	cmpnei      	r0, 0
    2bf2:	0bea      	bt      	0x2bc6	// 2bc6 <__divsf3+0x72>
    2bf4:	3b40      	cmpnei      	r3, 0
    2bf6:	0fe8      	bf      	0x2bc6	// 2bc6 <__divsf3+0x72>
    2bf8:	6108      	addu      	r4, r2
    2bfa:	6905      	andn      	r4, r1
    2bfc:	07e5      	br      	0x2bc6	// 2bc6 <__divsf3+0x72>
    2bfe:	3304      	movi      	r3, 4
    2c00:	b862      	st.w      	r3, (r14, 0x8)
    2c02:	1802      	addi      	r0, r14, 8
    2c04:	07e3      	br      	0x2bca	// 2bca <__divsf3+0x76>
    2c06:	1806      	addi      	r0, r14, 24
    2c08:	07e1      	br      	0x2bca	// 2bca <__divsf3+0x76>
    2c0a:	0000      	bkpt
    2c0c:	00008cf4 	.long	0x00008cf4

00002c10 <__fixsfsi>:
    2c10:	14d0      	push      	r15
    2c12:	1425      	subi      	r14, r14, 20
    2c14:	b800      	st.w      	r0, (r14, 0x0)
    2c16:	1901      	addi      	r1, r14, 4
    2c18:	6c3b      	mov      	r0, r14
    2c1a:	e00004b3 	bsr      	0x3580	// 3580 <__unpack_f>
    2c1e:	9861      	ld.w      	r3, (r14, 0x4)
    2c20:	3b02      	cmphsi      	r3, 3
    2c22:	0c1b      	bf      	0x2c58	// 2c58 <__fixsfsi+0x48>
    2c24:	3b44      	cmpnei      	r3, 4
    2c26:	0c06      	bf      	0x2c32	// 2c32 <__fixsfsi+0x22>
    2c28:	9863      	ld.w      	r3, (r14, 0xc)
    2c2a:	3bdf      	btsti      	r3, 31
    2c2c:	0816      	bt      	0x2c58	// 2c58 <__fixsfsi+0x48>
    2c2e:	3b3e      	cmplti      	r3, 31
    2c30:	0809      	bt      	0x2c42	// 2c42 <__fixsfsi+0x32>
    2c32:	9862      	ld.w      	r3, (r14, 0x8)
    2c34:	3b40      	cmpnei      	r3, 0
    2c36:	3000      	movi      	r0, 0
    2c38:	6001      	addc      	r0, r0
    2c3a:	106a      	lrw      	r3, 0x7fffffff	// 2c60 <__fixsfsi+0x50>
    2c3c:	600c      	addu      	r0, r3
    2c3e:	1405      	addi      	r14, r14, 20
    2c40:	1490      	pop      	r15
    2c42:	321e      	movi      	r2, 30
    2c44:	5a6d      	subu      	r3, r2, r3
    2c46:	9804      	ld.w      	r0, (r14, 0x10)
    2c48:	700d      	lsr      	r0, r3
    2c4a:	9862      	ld.w      	r3, (r14, 0x8)
    2c4c:	3b40      	cmpnei      	r3, 0
    2c4e:	0ff8      	bf      	0x2c3e	// 2c3e <__fixsfsi+0x2e>
    2c50:	3300      	movi      	r3, 0
    2c52:	5b01      	subu      	r0, r3, r0
    2c54:	1405      	addi      	r14, r14, 20
    2c56:	1490      	pop      	r15
    2c58:	3000      	movi      	r0, 0
    2c5a:	1405      	addi      	r14, r14, 20
    2c5c:	1490      	pop      	r15
    2c5e:	0000      	bkpt
    2c60:	7fffffff 	.long	0x7fffffff

00002c64 <__floatunsisf>:
    2c64:	14d2      	push      	r4-r5, r15
    2c66:	1424      	subi      	r14, r14, 16
    2c68:	3840      	cmpnei      	r0, 0
    2c6a:	3300      	movi      	r3, 0
    2c6c:	6d03      	mov      	r4, r0
    2c6e:	b861      	st.w      	r3, (r14, 0x4)
    2c70:	0c15      	bf      	0x2c9a	// 2c9a <__floatunsisf+0x36>
    2c72:	3303      	movi      	r3, 3
    2c74:	351e      	movi      	r5, 30
    2c76:	b860      	st.w      	r3, (r14, 0x0)
    2c78:	b8a2      	st.w      	r5, (r14, 0x8)
    2c7a:	e0000407 	bsr      	0x3488	// 3488 <__clzsi2>
    2c7e:	3840      	cmpnei      	r0, 0
    2c80:	5863      	subi      	r3, r0, 1
    2c82:	0c13      	bf      	0x2ca8	// 2ca8 <__floatunsisf+0x44>
    2c84:	3b40      	cmpnei      	r3, 0
    2c86:	0c1d      	bf      	0x2cc0	// 2cc0 <__floatunsisf+0x5c>
    2c88:	710c      	lsl      	r4, r3
    2c8a:	614e      	subu      	r5, r3
    2c8c:	b883      	st.w      	r4, (r14, 0xc)
    2c8e:	b8a2      	st.w      	r5, (r14, 0x8)
    2c90:	6c3b      	mov      	r0, r14
    2c92:	e000041b 	bsr      	0x34c8	// 34c8 <__pack_f>
    2c96:	1404      	addi      	r14, r14, 16
    2c98:	1492      	pop      	r4-r5, r15
    2c9a:	3302      	movi      	r3, 2
    2c9c:	6c3b      	mov      	r0, r14
    2c9e:	b860      	st.w      	r3, (r14, 0x0)
    2ca0:	e0000414 	bsr      	0x34c8	// 34c8 <__pack_f>
    2ca4:	1404      	addi      	r14, r14, 16
    2ca6:	1492      	pop      	r4-r5, r15
    2ca8:	3301      	movi      	r3, 1
    2caa:	68d0      	and      	r3, r4
    2cac:	4c81      	lsri      	r4, r4, 1
    2cae:	6d0c      	or      	r4, r3
    2cb0:	6c3b      	mov      	r0, r14
    2cb2:	331f      	movi      	r3, 31
    2cb4:	b883      	st.w      	r4, (r14, 0xc)
    2cb6:	b862      	st.w      	r3, (r14, 0x8)
    2cb8:	e0000408 	bsr      	0x34c8	// 34c8 <__pack_f>
    2cbc:	1404      	addi      	r14, r14, 16
    2cbe:	1492      	pop      	r4-r5, r15
    2cc0:	b883      	st.w      	r4, (r14, 0xc)
    2cc2:	07e7      	br      	0x2c90	// 2c90 <__floatunsisf+0x2c>

00002cc4 <_fpadd_parts>:
    2cc4:	14c4      	push      	r4-r7
    2cc6:	142a      	subi      	r14, r14, 40
    2cc8:	9060      	ld.w      	r3, (r0, 0x0)
    2cca:	3b01      	cmphsi      	r3, 2
    2ccc:	6dcb      	mov      	r7, r2
    2cce:	0c67      	bf      	0x2d9c	// 2d9c <_fpadd_parts+0xd8>
    2cd0:	9140      	ld.w      	r2, (r1, 0x0)
    2cd2:	3a01      	cmphsi      	r2, 2
    2cd4:	0c66      	bf      	0x2da0	// 2da0 <_fpadd_parts+0xdc>
    2cd6:	3b44      	cmpnei      	r3, 4
    2cd8:	0cde      	bf      	0x2e94	// 2e94 <_fpadd_parts+0x1d0>
    2cda:	3a44      	cmpnei      	r2, 4
    2cdc:	0c62      	bf      	0x2da0	// 2da0 <_fpadd_parts+0xdc>
    2cde:	3a42      	cmpnei      	r2, 2
    2ce0:	0cb7      	bf      	0x2e4e	// 2e4e <_fpadd_parts+0x18a>
    2ce2:	3b42      	cmpnei      	r3, 2
    2ce4:	0c5e      	bf      	0x2da0	// 2da0 <_fpadd_parts+0xdc>
    2ce6:	9043      	ld.w      	r2, (r0, 0xc)
    2ce8:	9064      	ld.w      	r3, (r0, 0x10)
    2cea:	9082      	ld.w      	r4, (r0, 0x8)
    2cec:	91a2      	ld.w      	r5, (r1, 0x8)
    2cee:	b842      	st.w      	r2, (r14, 0x8)
    2cf0:	b863      	st.w      	r3, (r14, 0xc)
    2cf2:	9143      	ld.w      	r2, (r1, 0xc)
    2cf4:	9164      	ld.w      	r3, (r1, 0x10)
    2cf6:	b840      	st.w      	r2, (r14, 0x0)
    2cf8:	b861      	st.w      	r3, (r14, 0x4)
    2cfa:	5c75      	subu      	r3, r4, r5
    2cfc:	3bdf      	btsti      	r3, 31
    2cfe:	6c8f      	mov      	r2, r3
    2d00:	08d2      	bt      	0x2ea4	// 2ea4 <_fpadd_parts+0x1e0>
    2d02:	363f      	movi      	r6, 63
    2d04:	6499      	cmplt      	r6, r2
    2d06:	0c50      	bf      	0x2da6	// 2da6 <_fpadd_parts+0xe2>
    2d08:	6515      	cmplt      	r5, r4
    2d0a:	0cbf      	bf      	0x2e88	// 2e88 <_fpadd_parts+0x1c4>
    2d0c:	3200      	movi      	r2, 0
    2d0e:	3300      	movi      	r3, 0
    2d10:	b840      	st.w      	r2, (r14, 0x0)
    2d12:	b861      	st.w      	r3, (r14, 0x4)
    2d14:	9061      	ld.w      	r3, (r0, 0x4)
    2d16:	9141      	ld.w      	r2, (r1, 0x4)
    2d18:	648e      	cmpne      	r3, r2
    2d1a:	0c78      	bf      	0x2e0a	// 2e0a <_fpadd_parts+0x146>
    2d1c:	3b40      	cmpnei      	r3, 0
    2d1e:	0cad      	bf      	0x2e78	// 2e78 <_fpadd_parts+0x1b4>
    2d20:	9800      	ld.w      	r0, (r14, 0x0)
    2d22:	9821      	ld.w      	r1, (r14, 0x4)
    2d24:	9842      	ld.w      	r2, (r14, 0x8)
    2d26:	9863      	ld.w      	r3, (r14, 0xc)
    2d28:	6400      	cmphs      	r0, r0
    2d2a:	600b      	subc      	r0, r2
    2d2c:	604f      	subc      	r1, r3
    2d2e:	39df      	btsti      	r1, 31
    2d30:	08bd      	bt      	0x2eaa	// 2eaa <_fpadd_parts+0x1e6>
    2d32:	3300      	movi      	r3, 0
    2d34:	b761      	st.w      	r3, (r7, 0x4)
    2d36:	b782      	st.w      	r4, (r7, 0x8)
    2d38:	6c83      	mov      	r2, r0
    2d3a:	6cc7      	mov      	r3, r1
    2d3c:	b703      	st.w      	r0, (r7, 0xc)
    2d3e:	b724      	st.w      	r1, (r7, 0x10)
    2d40:	3000      	movi      	r0, 0
    2d42:	3100      	movi      	r1, 0
    2d44:	2800      	subi      	r0, 1
    2d46:	2900      	subi      	r1, 1
    2d48:	6401      	cmplt      	r0, r0
    2d4a:	6009      	addc      	r0, r2
    2d4c:	604d      	addc      	r1, r3
    2d4e:	038f      	lrw      	r4, 0xfffffff	// 2f8c <_fpadd_parts+0x2c8>
    2d50:	6450      	cmphs      	r4, r1
    2d52:	0c67      	bf      	0x2e20	// 2e20 <_fpadd_parts+0x15c>
    2d54:	6506      	cmpne      	r1, r4
    2d56:	0cfd      	bf      	0x2f50	// 2f50 <_fpadd_parts+0x28c>
    2d58:	3000      	movi      	r0, 0
    2d5a:	9722      	ld.w      	r1, (r7, 0x8)
    2d5c:	2801      	subi      	r0, 2
    2d5e:	2900      	subi      	r1, 1
    2d60:	03d4      	lrw      	r6, 0xfffffff	// 2f8c <_fpadd_parts+0x2c8>
    2d62:	b802      	st.w      	r0, (r14, 0x8)
    2d64:	b8e0      	st.w      	r7, (r14, 0x0)
    2d66:	0403      	br      	0x2d6c	// 2d6c <_fpadd_parts+0xa8>
    2d68:	6596      	cmpne      	r5, r6
    2d6a:	0c83      	bf      	0x2e70	// 2e70 <_fpadd_parts+0x1ac>
    2d6c:	4301      	lsli      	r0, r3, 1
    2d6e:	4a9f      	lsri      	r4, r2, 31
    2d70:	6d00      	or      	r4, r0
    2d72:	42a1      	lsli      	r5, r2, 1
    2d74:	6c97      	mov      	r2, r5
    2d76:	6cd3      	mov      	r3, r4
    2d78:	3500      	movi      	r5, 0
    2d7a:	3400      	movi      	r4, 0
    2d7c:	2c00      	subi      	r4, 1
    2d7e:	2d00      	subi      	r5, 1
    2d80:	6511      	cmplt      	r4, r4
    2d82:	6109      	addc      	r4, r2
    2d84:	614d      	addc      	r5, r3
    2d86:	6558      	cmphs      	r6, r5
    2d88:	6c07      	mov      	r0, r1
    2d8a:	2900      	subi      	r1, 1
    2d8c:	0bee      	bt      	0x2d68	// 2d68 <_fpadd_parts+0xa4>
    2d8e:	98e0      	ld.w      	r7, (r14, 0x0)
    2d90:	b743      	st.w      	r2, (r7, 0xc)
    2d92:	b764      	st.w      	r3, (r7, 0x10)
    2d94:	3303      	movi      	r3, 3
    2d96:	b702      	st.w      	r0, (r7, 0x8)
    2d98:	b760      	st.w      	r3, (r7, 0x0)
    2d9a:	6c1f      	mov      	r0, r7
    2d9c:	140a      	addi      	r14, r14, 40
    2d9e:	1484      	pop      	r4-r7
    2da0:	6c07      	mov      	r0, r1
    2da2:	140a      	addi      	r14, r14, 40
    2da4:	1484      	pop      	r4-r7
    2da6:	3b20      	cmplti      	r3, 1
    2da8:	088c      	bt      	0x2ec0	// 2ec0 <_fpadd_parts+0x1fc>
    2daa:	3300      	movi      	r3, 0
    2dac:	2b1f      	subi      	r3, 32
    2dae:	60c8      	addu      	r3, r2
    2db0:	3bdf      	btsti      	r3, 31
    2db2:	b866      	st.w      	r3, (r14, 0x18)
    2db4:	08bb      	bt      	0x2f2a	// 2f2a <_fpadd_parts+0x266>
    2db6:	98a1      	ld.w      	r5, (r14, 0x4)
    2db8:	714d      	lsr      	r5, r3
    2dba:	b8a4      	st.w      	r5, (r14, 0x10)
    2dbc:	3500      	movi      	r5, 0
    2dbe:	b8a5      	st.w      	r5, (r14, 0x14)
    2dc0:	9866      	ld.w      	r3, (r14, 0x18)
    2dc2:	3bdf      	btsti      	r3, 31
    2dc4:	3500      	movi      	r5, 0
    2dc6:	3600      	movi      	r6, 0
    2dc8:	08ad      	bt      	0x2f22	// 2f22 <_fpadd_parts+0x25e>
    2dca:	3201      	movi      	r2, 1
    2dcc:	708c      	lsl      	r2, r3
    2dce:	6d8b      	mov      	r6, r2
    2dd0:	3200      	movi      	r2, 0
    2dd2:	3300      	movi      	r3, 0
    2dd4:	2a00      	subi      	r2, 1
    2dd6:	2b00      	subi      	r3, 1
    2dd8:	6489      	cmplt      	r2, r2
    2dda:	6095      	addc      	r2, r5
    2ddc:	60d9      	addc      	r3, r6
    2dde:	98a0      	ld.w      	r5, (r14, 0x0)
    2de0:	98c1      	ld.w      	r6, (r14, 0x4)
    2de2:	6948      	and      	r5, r2
    2de4:	698c      	and      	r6, r3
    2de6:	6c97      	mov      	r2, r5
    2de8:	6cdb      	mov      	r3, r6
    2dea:	6c8c      	or      	r2, r3
    2dec:	3a40      	cmpnei      	r2, 0
    2dee:	3500      	movi      	r5, 0
    2df0:	6155      	addc      	r5, r5
    2df2:	6c97      	mov      	r2, r5
    2df4:	3300      	movi      	r3, 0
    2df6:	98a4      	ld.w      	r5, (r14, 0x10)
    2df8:	98c5      	ld.w      	r6, (r14, 0x14)
    2dfa:	6d48      	or      	r5, r2
    2dfc:	6d8c      	or      	r6, r3
    2dfe:	9061      	ld.w      	r3, (r0, 0x4)
    2e00:	9141      	ld.w      	r2, (r1, 0x4)
    2e02:	648e      	cmpne      	r3, r2
    2e04:	b8a0      	st.w      	r5, (r14, 0x0)
    2e06:	b8c1      	st.w      	r6, (r14, 0x4)
    2e08:	0b8a      	bt      	0x2d1c	// 2d1c <_fpadd_parts+0x58>
    2e0a:	b761      	st.w      	r3, (r7, 0x4)
    2e0c:	9800      	ld.w      	r0, (r14, 0x0)
    2e0e:	9821      	ld.w      	r1, (r14, 0x4)
    2e10:	9842      	ld.w      	r2, (r14, 0x8)
    2e12:	9863      	ld.w      	r3, (r14, 0xc)
    2e14:	6489      	cmplt      	r2, r2
    2e16:	6081      	addc      	r2, r0
    2e18:	60c5      	addc      	r3, r1
    2e1a:	b782      	st.w      	r4, (r7, 0x8)
    2e1c:	b743      	st.w      	r2, (r7, 0xc)
    2e1e:	b764      	st.w      	r3, (r7, 0x10)
    2e20:	3103      	movi      	r1, 3
    2e22:	b720      	st.w      	r1, (r7, 0x0)
    2e24:	123b      	lrw      	r1, 0x1fffffff	// 2f90 <_fpadd_parts+0x2cc>
    2e26:	64c4      	cmphs      	r1, r3
    2e28:	0810      	bt      	0x2e48	// 2e48 <_fpadd_parts+0x184>
    2e2a:	439f      	lsli      	r4, r3, 31
    2e2c:	4a01      	lsri      	r0, r2, 1
    2e2e:	6c10      	or      	r0, r4
    2e30:	3500      	movi      	r5, 0
    2e32:	3401      	movi      	r4, 1
    2e34:	4b21      	lsri      	r1, r3, 1
    2e36:	6890      	and      	r2, r4
    2e38:	68d4      	and      	r3, r5
    2e3a:	6c80      	or      	r2, r0
    2e3c:	6cc4      	or      	r3, r1
    2e3e:	b743      	st.w      	r2, (r7, 0xc)
    2e40:	b764      	st.w      	r3, (r7, 0x10)
    2e42:	9762      	ld.w      	r3, (r7, 0x8)
    2e44:	2300      	addi      	r3, 1
    2e46:	b762      	st.w      	r3, (r7, 0x8)
    2e48:	6c1f      	mov      	r0, r7
    2e4a:	140a      	addi      	r14, r14, 40
    2e4c:	1484      	pop      	r4-r7
    2e4e:	3b42      	cmpnei      	r3, 2
    2e50:	0ba6      	bt      	0x2d9c	// 2d9c <_fpadd_parts+0xd8>
    2e52:	b760      	st.w      	r3, (r7, 0x0)
    2e54:	9061      	ld.w      	r3, (r0, 0x4)
    2e56:	b761      	st.w      	r3, (r7, 0x4)
    2e58:	9062      	ld.w      	r3, (r0, 0x8)
    2e5a:	b762      	st.w      	r3, (r7, 0x8)
    2e5c:	9063      	ld.w      	r3, (r0, 0xc)
    2e5e:	b763      	st.w      	r3, (r7, 0xc)
    2e60:	9064      	ld.w      	r3, (r0, 0x10)
    2e62:	9141      	ld.w      	r2, (r1, 0x4)
    2e64:	b764      	st.w      	r3, (r7, 0x10)
    2e66:	9061      	ld.w      	r3, (r0, 0x4)
    2e68:	68c8      	and      	r3, r2
    2e6a:	b761      	st.w      	r3, (r7, 0x4)
    2e6c:	6c1f      	mov      	r0, r7
    2e6e:	0797      	br      	0x2d9c	// 2d9c <_fpadd_parts+0xd8>
    2e70:	98e2      	ld.w      	r7, (r14, 0x8)
    2e72:	651c      	cmphs      	r7, r4
    2e74:	0b7c      	bt      	0x2d6c	// 2d6c <_fpadd_parts+0xa8>
    2e76:	078c      	br      	0x2d8e	// 2d8e <_fpadd_parts+0xca>
    2e78:	9802      	ld.w      	r0, (r14, 0x8)
    2e7a:	9823      	ld.w      	r1, (r14, 0xc)
    2e7c:	9840      	ld.w      	r2, (r14, 0x0)
    2e7e:	9861      	ld.w      	r3, (r14, 0x4)
    2e80:	6400      	cmphs      	r0, r0
    2e82:	600b      	subc      	r0, r2
    2e84:	604f      	subc      	r1, r3
    2e86:	0754      	br      	0x2d2e	// 2d2e <_fpadd_parts+0x6a>
    2e88:	3200      	movi      	r2, 0
    2e8a:	3300      	movi      	r3, 0
    2e8c:	6d17      	mov      	r4, r5
    2e8e:	b842      	st.w      	r2, (r14, 0x8)
    2e90:	b863      	st.w      	r3, (r14, 0xc)
    2e92:	0741      	br      	0x2d14	// 2d14 <_fpadd_parts+0x50>
    2e94:	3a44      	cmpnei      	r2, 4
    2e96:	0b83      	bt      	0x2d9c	// 2d9c <_fpadd_parts+0xd8>
    2e98:	9041      	ld.w      	r2, (r0, 0x4)
    2e9a:	9161      	ld.w      	r3, (r1, 0x4)
    2e9c:	64ca      	cmpne      	r2, r3
    2e9e:	0f7f      	bf      	0x2d9c	// 2d9c <_fpadd_parts+0xd8>
    2ea0:	111d      	lrw      	r0, 0x8d04	// 2f94 <_fpadd_parts+0x2d0>
    2ea2:	077d      	br      	0x2d9c	// 2d9c <_fpadd_parts+0xd8>
    2ea4:	3200      	movi      	r2, 0
    2ea6:	608e      	subu      	r2, r3
    2ea8:	072d      	br      	0x2d02	// 2d02 <_fpadd_parts+0x3e>
    2eaa:	3301      	movi      	r3, 1
    2eac:	b761      	st.w      	r3, (r7, 0x4)
    2eae:	3200      	movi      	r2, 0
    2eb0:	3300      	movi      	r3, 0
    2eb2:	6488      	cmphs      	r2, r2
    2eb4:	6083      	subc      	r2, r0
    2eb6:	60c7      	subc      	r3, r1
    2eb8:	b782      	st.w      	r4, (r7, 0x8)
    2eba:	b743      	st.w      	r2, (r7, 0xc)
    2ebc:	b764      	st.w      	r3, (r7, 0x10)
    2ebe:	0741      	br      	0x2d40	// 2d40 <_fpadd_parts+0x7c>
    2ec0:	3b40      	cmpnei      	r3, 0
    2ec2:	0f29      	bf      	0x2d14	// 2d14 <_fpadd_parts+0x50>
    2ec4:	3300      	movi      	r3, 0
    2ec6:	2b1f      	subi      	r3, 32
    2ec8:	60c8      	addu      	r3, r2
    2eca:	3bdf      	btsti      	r3, 31
    2ecc:	6108      	addu      	r4, r2
    2ece:	b866      	st.w      	r3, (r14, 0x18)
    2ed0:	0849      	bt      	0x2f62	// 2f62 <_fpadd_parts+0x29e>
    2ed2:	9863      	ld.w      	r3, (r14, 0xc)
    2ed4:	98a6      	ld.w      	r5, (r14, 0x18)
    2ed6:	70d5      	lsr      	r3, r5
    2ed8:	b864      	st.w      	r3, (r14, 0x10)
    2eda:	3300      	movi      	r3, 0
    2edc:	b865      	st.w      	r3, (r14, 0x14)
    2ede:	9866      	ld.w      	r3, (r14, 0x18)
    2ee0:	3bdf      	btsti      	r3, 31
    2ee2:	3500      	movi      	r5, 0
    2ee4:	3600      	movi      	r6, 0
    2ee6:	083a      	bt      	0x2f5a	// 2f5a <_fpadd_parts+0x296>
    2ee8:	3201      	movi      	r2, 1
    2eea:	708c      	lsl      	r2, r3
    2eec:	6d8b      	mov      	r6, r2
    2eee:	3200      	movi      	r2, 0
    2ef0:	3300      	movi      	r3, 0
    2ef2:	2a00      	subi      	r2, 1
    2ef4:	2b00      	subi      	r3, 1
    2ef6:	6489      	cmplt      	r2, r2
    2ef8:	6095      	addc      	r2, r5
    2efa:	60d9      	addc      	r3, r6
    2efc:	98a2      	ld.w      	r5, (r14, 0x8)
    2efe:	98c3      	ld.w      	r6, (r14, 0xc)
    2f00:	6948      	and      	r5, r2
    2f02:	698c      	and      	r6, r3
    2f04:	6c97      	mov      	r2, r5
    2f06:	6cdb      	mov      	r3, r6
    2f08:	6c8c      	or      	r2, r3
    2f0a:	3a40      	cmpnei      	r2, 0
    2f0c:	3500      	movi      	r5, 0
    2f0e:	6155      	addc      	r5, r5
    2f10:	6c97      	mov      	r2, r5
    2f12:	3300      	movi      	r3, 0
    2f14:	98a4      	ld.w      	r5, (r14, 0x10)
    2f16:	98c5      	ld.w      	r6, (r14, 0x14)
    2f18:	6d48      	or      	r5, r2
    2f1a:	6d8c      	or      	r6, r3
    2f1c:	b8a2      	st.w      	r5, (r14, 0x8)
    2f1e:	b8c3      	st.w      	r6, (r14, 0xc)
    2f20:	06fa      	br      	0x2d14	// 2d14 <_fpadd_parts+0x50>
    2f22:	3301      	movi      	r3, 1
    2f24:	70c8      	lsl      	r3, r2
    2f26:	6d4f      	mov      	r5, r3
    2f28:	0754      	br      	0x2dd0	// 2dd0 <_fpadd_parts+0x10c>
    2f2a:	9861      	ld.w      	r3, (r14, 0x4)
    2f2c:	361f      	movi      	r6, 31
    2f2e:	43a1      	lsli      	r5, r3, 1
    2f30:	618a      	subu      	r6, r2
    2f32:	7158      	lsl      	r5, r6
    2f34:	b8a9      	st.w      	r5, (r14, 0x24)
    2f36:	98a0      	ld.w      	r5, (r14, 0x0)
    2f38:	98c1      	ld.w      	r6, (r14, 0x4)
    2f3a:	b8a7      	st.w      	r5, (r14, 0x1c)
    2f3c:	b8c8      	st.w      	r6, (r14, 0x20)
    2f3e:	9867      	ld.w      	r3, (r14, 0x1c)
    2f40:	70c9      	lsr      	r3, r2
    2f42:	98a9      	ld.w      	r5, (r14, 0x24)
    2f44:	6cd4      	or      	r3, r5
    2f46:	b864      	st.w      	r3, (r14, 0x10)
    2f48:	9868      	ld.w      	r3, (r14, 0x20)
    2f4a:	70c9      	lsr      	r3, r2
    2f4c:	b865      	st.w      	r3, (r14, 0x14)
    2f4e:	0739      	br      	0x2dc0	// 2dc0 <_fpadd_parts+0xfc>
    2f50:	3100      	movi      	r1, 0
    2f52:	2901      	subi      	r1, 2
    2f54:	6404      	cmphs      	r1, r0
    2f56:	0b01      	bt      	0x2d58	// 2d58 <_fpadd_parts+0x94>
    2f58:	0764      	br      	0x2e20	// 2e20 <_fpadd_parts+0x15c>
    2f5a:	3301      	movi      	r3, 1
    2f5c:	70c8      	lsl      	r3, r2
    2f5e:	6d4f      	mov      	r5, r3
    2f60:	07c7      	br      	0x2eee	// 2eee <_fpadd_parts+0x22a>
    2f62:	9863      	ld.w      	r3, (r14, 0xc)
    2f64:	43c1      	lsli      	r6, r3, 1
    2f66:	351f      	movi      	r5, 31
    2f68:	5d69      	subu      	r3, r5, r2
    2f6a:	6d5b      	mov      	r5, r6
    2f6c:	714c      	lsl      	r5, r3
    2f6e:	b8a9      	st.w      	r5, (r14, 0x24)
    2f70:	98a2      	ld.w      	r5, (r14, 0x8)
    2f72:	98c3      	ld.w      	r6, (r14, 0xc)
    2f74:	b8a7      	st.w      	r5, (r14, 0x1c)
    2f76:	b8c8      	st.w      	r6, (r14, 0x20)
    2f78:	9867      	ld.w      	r3, (r14, 0x1c)
    2f7a:	70c9      	lsr      	r3, r2
    2f7c:	98a9      	ld.w      	r5, (r14, 0x24)
    2f7e:	6cd4      	or      	r3, r5
    2f80:	b864      	st.w      	r3, (r14, 0x10)
    2f82:	9868      	ld.w      	r3, (r14, 0x20)
    2f84:	70c9      	lsr      	r3, r2
    2f86:	b865      	st.w      	r3, (r14, 0x14)
    2f88:	07ab      	br      	0x2ede	// 2ede <_fpadd_parts+0x21a>
    2f8a:	0000      	bkpt
    2f8c:	0fffffff 	.long	0x0fffffff
    2f90:	1fffffff 	.long	0x1fffffff
    2f94:	00008d04 	.long	0x00008d04

00002f98 <__adddf3>:
    2f98:	14d0      	push      	r15
    2f9a:	1433      	subi      	r14, r14, 76
    2f9c:	b800      	st.w      	r0, (r14, 0x0)
    2f9e:	b821      	st.w      	r1, (r14, 0x4)
    2fa0:	6c3b      	mov      	r0, r14
    2fa2:	1904      	addi      	r1, r14, 16
    2fa4:	b863      	st.w      	r3, (r14, 0xc)
    2fa6:	b842      	st.w      	r2, (r14, 0x8)
    2fa8:	e00003fc 	bsr      	0x37a0	// 37a0 <__unpack_d>
    2fac:	1909      	addi      	r1, r14, 36
    2fae:	1802      	addi      	r0, r14, 8
    2fb0:	e00003f8 	bsr      	0x37a0	// 37a0 <__unpack_d>
    2fb4:	1a0e      	addi      	r2, r14, 56
    2fb6:	1909      	addi      	r1, r14, 36
    2fb8:	1804      	addi      	r0, r14, 16
    2fba:	e3fffe85 	bsr      	0x2cc4	// 2cc4 <_fpadd_parts>
    2fbe:	e0000323 	bsr      	0x3604	// 3604 <__pack_d>
    2fc2:	1413      	addi      	r14, r14, 76
    2fc4:	1490      	pop      	r15
	...

00002fc8 <__subdf3>:
    2fc8:	14d0      	push      	r15
    2fca:	1433      	subi      	r14, r14, 76
    2fcc:	b800      	st.w      	r0, (r14, 0x0)
    2fce:	b821      	st.w      	r1, (r14, 0x4)
    2fd0:	6c3b      	mov      	r0, r14
    2fd2:	1904      	addi      	r1, r14, 16
    2fd4:	b842      	st.w      	r2, (r14, 0x8)
    2fd6:	b863      	st.w      	r3, (r14, 0xc)
    2fd8:	e00003e4 	bsr      	0x37a0	// 37a0 <__unpack_d>
    2fdc:	1909      	addi      	r1, r14, 36
    2fde:	1802      	addi      	r0, r14, 8
    2fe0:	e00003e0 	bsr      	0x37a0	// 37a0 <__unpack_d>
    2fe4:	986a      	ld.w      	r3, (r14, 0x28)
    2fe6:	3201      	movi      	r2, 1
    2fe8:	6cc9      	xor      	r3, r2
    2fea:	1909      	addi      	r1, r14, 36
    2fec:	1a0e      	addi      	r2, r14, 56
    2fee:	1804      	addi      	r0, r14, 16
    2ff0:	b86a      	st.w      	r3, (r14, 0x28)
    2ff2:	e3fffe69 	bsr      	0x2cc4	// 2cc4 <_fpadd_parts>
    2ff6:	e0000307 	bsr      	0x3604	// 3604 <__pack_d>
    2ffa:	1413      	addi      	r14, r14, 76
    2ffc:	1490      	pop      	r15
	...

00003000 <__muldf3>:
    3000:	14d4      	push      	r4-r7, r15
    3002:	143b      	subi      	r14, r14, 108
    3004:	b808      	st.w      	r0, (r14, 0x20)
    3006:	b829      	st.w      	r1, (r14, 0x24)
    3008:	1808      	addi      	r0, r14, 32
    300a:	190c      	addi      	r1, r14, 48
    300c:	b86b      	st.w      	r3, (r14, 0x2c)
    300e:	b84a      	st.w      	r2, (r14, 0x28)
    3010:	e00003c8 	bsr      	0x37a0	// 37a0 <__unpack_d>
    3014:	1911      	addi      	r1, r14, 68
    3016:	180a      	addi      	r0, r14, 40
    3018:	e00003c4 	bsr      	0x37a0	// 37a0 <__unpack_d>
    301c:	986c      	ld.w      	r3, (r14, 0x30)
    301e:	3b01      	cmphsi      	r3, 2
    3020:	0cac      	bf      	0x3178	// 3178 <__muldf3+0x178>
    3022:	9851      	ld.w      	r2, (r14, 0x44)
    3024:	3a01      	cmphsi      	r2, 2
    3026:	0c9c      	bf      	0x315e	// 315e <__muldf3+0x15e>
    3028:	3b44      	cmpnei      	r3, 4
    302a:	0ca5      	bf      	0x3174	// 3174 <__muldf3+0x174>
    302c:	3a44      	cmpnei      	r2, 4
    302e:	0c96      	bf      	0x315a	// 315a <__muldf3+0x15a>
    3030:	3b42      	cmpnei      	r3, 2
    3032:	0ca3      	bf      	0x3178	// 3178 <__muldf3+0x178>
    3034:	3a42      	cmpnei      	r2, 2
    3036:	0c94      	bf      	0x315e	// 315e <__muldf3+0x15e>
    3038:	98ef      	ld.w      	r7, (r14, 0x3c)
    303a:	98b4      	ld.w      	r5, (r14, 0x50)
    303c:	9875      	ld.w      	r3, (r14, 0x54)
    303e:	6d8f      	mov      	r6, r3
    3040:	6c9f      	mov      	r2, r7
    3042:	3300      	movi      	r3, 0
    3044:	6c17      	mov      	r0, r5
    3046:	3100      	movi      	r1, 0
    3048:	e3fff8cc 	bsr      	0x21e0	// 21e0 <__muldi3>
    304c:	b804      	st.w      	r0, (r14, 0x10)
    304e:	b825      	st.w      	r1, (r14, 0x14)
    3050:	6c9f      	mov      	r2, r7
    3052:	3300      	movi      	r3, 0
    3054:	6c1b      	mov      	r0, r6
    3056:	3100      	movi      	r1, 0
    3058:	9890      	ld.w      	r4, (r14, 0x40)
    305a:	b8c2      	st.w      	r6, (r14, 0x8)
    305c:	e3fff8c2 	bsr      	0x21e0	// 21e0 <__muldi3>
    3060:	6d83      	mov      	r6, r0
    3062:	6dc7      	mov      	r7, r1
    3064:	9842      	ld.w      	r2, (r14, 0x8)
    3066:	3300      	movi      	r3, 0
    3068:	6c13      	mov      	r0, r4
    306a:	3100      	movi      	r1, 0
    306c:	e3fff8ba 	bsr      	0x21e0	// 21e0 <__muldi3>
    3070:	b806      	st.w      	r0, (r14, 0x18)
    3072:	b827      	st.w      	r1, (r14, 0x1c)
    3074:	6c97      	mov      	r2, r5
    3076:	3300      	movi      	r3, 0
    3078:	6c13      	mov      	r0, r4
    307a:	3100      	movi      	r1, 0
    307c:	e3fff8b2 	bsr      	0x21e0	// 21e0 <__muldi3>
    3080:	6401      	cmplt      	r0, r0
    3082:	6019      	addc      	r0, r6
    3084:	605d      	addc      	r1, r7
    3086:	65c4      	cmphs      	r1, r7
    3088:	0c91      	bf      	0x31aa	// 31aa <__muldf3+0x1aa>
    308a:	645e      	cmpne      	r7, r1
    308c:	0c8d      	bf      	0x31a6	// 31a6 <__muldf3+0x1a6>
    308e:	3300      	movi      	r3, 0
    3090:	3400      	movi      	r4, 0
    3092:	b862      	st.w      	r3, (r14, 0x8)
    3094:	b883      	st.w      	r4, (r14, 0xc)
    3096:	9884      	ld.w      	r4, (r14, 0x10)
    3098:	98a5      	ld.w      	r5, (r14, 0x14)
    309a:	3600      	movi      	r6, 0
    309c:	6dc3      	mov      	r7, r0
    309e:	6c93      	mov      	r2, r4
    30a0:	6cd7      	mov      	r3, r5
    30a2:	6489      	cmplt      	r2, r2
    30a4:	6099      	addc      	r2, r6
    30a6:	60dd      	addc      	r3, r7
    30a8:	6d8b      	mov      	r6, r2
    30aa:	6dcf      	mov      	r7, r3
    30ac:	6c93      	mov      	r2, r4
    30ae:	6cd7      	mov      	r3, r5
    30b0:	64dc      	cmphs      	r7, r3
    30b2:	0c70      	bf      	0x3192	// 3192 <__muldf3+0x192>
    30b4:	65ce      	cmpne      	r3, r7
    30b6:	0c6c      	bf      	0x318e	// 318e <__muldf3+0x18e>
    30b8:	6c87      	mov      	r2, r1
    30ba:	3300      	movi      	r3, 0
    30bc:	9806      	ld.w      	r0, (r14, 0x18)
    30be:	9827      	ld.w      	r1, (r14, 0x1c)
    30c0:	6401      	cmplt      	r0, r0
    30c2:	6009      	addc      	r0, r2
    30c4:	604d      	addc      	r1, r3
    30c6:	6c83      	mov      	r2, r0
    30c8:	6cc7      	mov      	r3, r1
    30ca:	9802      	ld.w      	r0, (r14, 0x8)
    30cc:	9823      	ld.w      	r1, (r14, 0xc)
    30ce:	6401      	cmplt      	r0, r0
    30d0:	6009      	addc      	r0, r2
    30d2:	604d      	addc      	r1, r3
    30d4:	6c83      	mov      	r2, r0
    30d6:	6cc7      	mov      	r3, r1
    30d8:	988e      	ld.w      	r4, (r14, 0x38)
    30da:	9833      	ld.w      	r1, (r14, 0x4c)
    30dc:	6104      	addu      	r4, r1
    30de:	5c2e      	addi      	r1, r4, 4
    30e0:	b838      	st.w      	r1, (r14, 0x60)
    30e2:	980d      	ld.w      	r0, (r14, 0x34)
    30e4:	9832      	ld.w      	r1, (r14, 0x48)
    30e6:	6442      	cmpne      	r0, r1
    30e8:	12b0      	lrw      	r5, 0x1fffffff	// 3228 <__muldf3+0x228>
    30ea:	3100      	movi      	r1, 0
    30ec:	6045      	addc      	r1, r1
    30ee:	64d4      	cmphs      	r5, r3
    30f0:	b837      	st.w      	r1, (r14, 0x5c)
    30f2:	0879      	bt      	0x31e4	// 31e4 <__muldf3+0x1e4>
    30f4:	2404      	addi      	r4, 5
    30f6:	b8a4      	st.w      	r5, (r14, 0x10)
    30f8:	3001      	movi      	r0, 1
    30fa:	3100      	movi      	r1, 0
    30fc:	6808      	and      	r0, r2
    30fe:	684c      	and      	r1, r3
    3100:	6c04      	or      	r0, r1
    3102:	3840      	cmpnei      	r0, 0
    3104:	b882      	st.w      	r4, (r14, 0x8)
    3106:	0c0e      	bf      	0x3122	// 3122 <__muldf3+0x122>
    3108:	473f      	lsli      	r1, r7, 31
    310a:	4e01      	lsri      	r0, r6, 1
    310c:	6c04      	or      	r0, r1
    310e:	4f21      	lsri      	r1, r7, 1
    3110:	b800      	st.w      	r0, (r14, 0x0)
    3112:	b821      	st.w      	r1, (r14, 0x4)
    3114:	3180      	movi      	r1, 128
    3116:	98c0      	ld.w      	r6, (r14, 0x0)
    3118:	98e1      	ld.w      	r7, (r14, 0x4)
    311a:	3000      	movi      	r0, 0
    311c:	4138      	lsli      	r1, r1, 24
    311e:	6d80      	or      	r6, r0
    3120:	6dc4      	or      	r7, r1
    3122:	4b21      	lsri      	r1, r3, 1
    3124:	43bf      	lsli      	r5, r3, 31
    3126:	4a01      	lsri      	r0, r2, 1
    3128:	6cc7      	mov      	r3, r1
    312a:	9824      	ld.w      	r1, (r14, 0x10)
    312c:	6d40      	or      	r5, r0
    312e:	64c4      	cmphs      	r1, r3
    3130:	6c97      	mov      	r2, r5
    3132:	2400      	addi      	r4, 1
    3134:	0fe2      	bf      	0x30f8	// 30f8 <__muldf3+0xf8>
    3136:	9822      	ld.w      	r1, (r14, 0x8)
    3138:	b838      	st.w      	r1, (r14, 0x60)
    313a:	30ff      	movi      	r0, 255
    313c:	3100      	movi      	r1, 0
    313e:	6808      	and      	r0, r2
    3140:	684c      	and      	r1, r3
    3142:	3480      	movi      	r4, 128
    3144:	6502      	cmpne      	r0, r4
    3146:	0c37      	bf      	0x31b4	// 31b4 <__muldf3+0x1b4>
    3148:	b859      	st.w      	r2, (r14, 0x64)
    314a:	b87a      	st.w      	r3, (r14, 0x68)
    314c:	3303      	movi      	r3, 3
    314e:	b876      	st.w      	r3, (r14, 0x58)
    3150:	1816      	addi      	r0, r14, 88
    3152:	e0000259 	bsr      	0x3604	// 3604 <__pack_d>
    3156:	141b      	addi      	r14, r14, 108
    3158:	1494      	pop      	r4-r7, r15
    315a:	3b42      	cmpnei      	r3, 2
    315c:	0c42      	bf      	0x31e0	// 31e0 <__muldf3+0x1e0>
    315e:	9872      	ld.w      	r3, (r14, 0x48)
    3160:	984d      	ld.w      	r2, (r14, 0x34)
    3162:	64ca      	cmpne      	r2, r3
    3164:	3300      	movi      	r3, 0
    3166:	60cd      	addc      	r3, r3
    3168:	1811      	addi      	r0, r14, 68
    316a:	b872      	st.w      	r3, (r14, 0x48)
    316c:	e000024c 	bsr      	0x3604	// 3604 <__pack_d>
    3170:	141b      	addi      	r14, r14, 108
    3172:	1494      	pop      	r4-r7, r15
    3174:	3a42      	cmpnei      	r2, 2
    3176:	0c35      	bf      	0x31e0	// 31e0 <__muldf3+0x1e0>
    3178:	984d      	ld.w      	r2, (r14, 0x34)
    317a:	9872      	ld.w      	r3, (r14, 0x48)
    317c:	64ca      	cmpne      	r2, r3
    317e:	3300      	movi      	r3, 0
    3180:	60cd      	addc      	r3, r3
    3182:	180c      	addi      	r0, r14, 48
    3184:	b86d      	st.w      	r3, (r14, 0x34)
    3186:	e000023f 	bsr      	0x3604	// 3604 <__pack_d>
    318a:	141b      	addi      	r14, r14, 108
    318c:	1494      	pop      	r4-r7, r15
    318e:	6498      	cmphs      	r6, r2
    3190:	0b94      	bt      	0x30b8	// 30b8 <__muldf3+0xb8>
    3192:	9882      	ld.w      	r4, (r14, 0x8)
    3194:	98a3      	ld.w      	r5, (r14, 0xc)
    3196:	3201      	movi      	r2, 1
    3198:	3300      	movi      	r3, 0
    319a:	6511      	cmplt      	r4, r4
    319c:	6109      	addc      	r4, r2
    319e:	614d      	addc      	r5, r3
    31a0:	b882      	st.w      	r4, (r14, 0x8)
    31a2:	b8a3      	st.w      	r5, (r14, 0xc)
    31a4:	078a      	br      	0x30b8	// 30b8 <__muldf3+0xb8>
    31a6:	6580      	cmphs      	r0, r6
    31a8:	0b73      	bt      	0x308e	// 308e <__muldf3+0x8e>
    31aa:	3300      	movi      	r3, 0
    31ac:	3401      	movi      	r4, 1
    31ae:	b862      	st.w      	r3, (r14, 0x8)
    31b0:	b883      	st.w      	r4, (r14, 0xc)
    31b2:	0772      	br      	0x3096	// 3096 <__muldf3+0x96>
    31b4:	3940      	cmpnei      	r1, 0
    31b6:	0bc9      	bt      	0x3148	// 3148 <__muldf3+0x148>
    31b8:	3180      	movi      	r1, 128
    31ba:	4121      	lsli      	r1, r1, 1
    31bc:	6848      	and      	r1, r2
    31be:	3940      	cmpnei      	r1, 0
    31c0:	0bc4      	bt      	0x3148	// 3148 <__muldf3+0x148>
    31c2:	6c5b      	mov      	r1, r6
    31c4:	6c5c      	or      	r1, r7
    31c6:	3940      	cmpnei      	r1, 0
    31c8:	0fc0      	bf      	0x3148	// 3148 <__muldf3+0x148>
    31ca:	3080      	movi      	r0, 128
    31cc:	3100      	movi      	r1, 0
    31ce:	6401      	cmplt      	r0, r0
    31d0:	6009      	addc      	r0, r2
    31d2:	604d      	addc      	r1, r3
    31d4:	34ff      	movi      	r4, 255
    31d6:	6d43      	mov      	r5, r0
    31d8:	6951      	andn      	r5, r4
    31da:	6c97      	mov      	r2, r5
    31dc:	6cc7      	mov      	r3, r1
    31de:	07b5      	br      	0x3148	// 3148 <__muldf3+0x148>
    31e0:	1013      	lrw      	r0, 0x8d04	// 322c <__muldf3+0x22c>
    31e2:	07b8      	br      	0x3152	// 3152 <__muldf3+0x152>
    31e4:	1033      	lrw      	r1, 0xfffffff	// 3230 <__muldf3+0x230>
    31e6:	64c4      	cmphs      	r1, r3
    31e8:	0fa9      	bf      	0x313a	// 313a <__muldf3+0x13a>
    31ea:	2402      	addi      	r4, 3
    31ec:	b822      	st.w      	r1, (r14, 0x8)
    31ee:	4a1f      	lsri      	r0, r2, 31
    31f0:	4321      	lsli      	r1, r3, 1
    31f2:	42a1      	lsli      	r5, r2, 1
    31f4:	6c04      	or      	r0, r1
    31f6:	3fdf      	btsti      	r7, 31
    31f8:	b880      	st.w      	r4, (r14, 0x0)
    31fa:	6c97      	mov      	r2, r5
    31fc:	6cc3      	mov      	r3, r0
    31fe:	0c07      	bf      	0x320c	// 320c <__muldf3+0x20c>
    3200:	3001      	movi      	r0, 1
    3202:	3100      	movi      	r1, 0
    3204:	6c08      	or      	r0, r2
    3206:	6c4c      	or      	r1, r3
    3208:	6c83      	mov      	r2, r0
    320a:	6cc7      	mov      	r3, r1
    320c:	4721      	lsli      	r1, r7, 1
    320e:	4e1f      	lsri      	r0, r6, 31
    3210:	6c04      	or      	r0, r1
    3212:	9822      	ld.w      	r1, (r14, 0x8)
    3214:	46a1      	lsli      	r5, r6, 1
    3216:	64c4      	cmphs      	r1, r3
    3218:	6d97      	mov      	r6, r5
    321a:	6dc3      	mov      	r7, r0
    321c:	2c00      	subi      	r4, 1
    321e:	0be8      	bt      	0x31ee	// 31ee <__muldf3+0x1ee>
    3220:	9820      	ld.w      	r1, (r14, 0x0)
    3222:	b838      	st.w      	r1, (r14, 0x60)
    3224:	078b      	br      	0x313a	// 313a <__muldf3+0x13a>
    3226:	0000      	bkpt
    3228:	1fffffff 	.long	0x1fffffff
    322c:	00008d04 	.long	0x00008d04
    3230:	0fffffff 	.long	0x0fffffff

00003234 <__divdf3>:
    3234:	14d4      	push      	r4-r7, r15
    3236:	1432      	subi      	r14, r14, 72
    3238:	b804      	st.w      	r0, (r14, 0x10)
    323a:	b825      	st.w      	r1, (r14, 0x14)
    323c:	1804      	addi      	r0, r14, 16
    323e:	1908      	addi      	r1, r14, 32
    3240:	b867      	st.w      	r3, (r14, 0x1c)
    3242:	b846      	st.w      	r2, (r14, 0x18)
    3244:	e00002ae 	bsr      	0x37a0	// 37a0 <__unpack_d>
    3248:	190d      	addi      	r1, r14, 52
    324a:	1806      	addi      	r0, r14, 24
    324c:	e00002aa 	bsr      	0x37a0	// 37a0 <__unpack_d>
    3250:	9868      	ld.w      	r3, (r14, 0x20)
    3252:	3b01      	cmphsi      	r3, 2
    3254:	0c66      	bf      	0x3320	// 3320 <__divdf3+0xec>
    3256:	982d      	ld.w      	r1, (r14, 0x34)
    3258:	3901      	cmphsi      	r1, 2
    325a:	0c92      	bf      	0x337e	// 337e <__divdf3+0x14a>
    325c:	9849      	ld.w      	r2, (r14, 0x24)
    325e:	980e      	ld.w      	r0, (r14, 0x38)
    3260:	6c81      	xor      	r2, r0
    3262:	3b44      	cmpnei      	r3, 4
    3264:	b849      	st.w      	r2, (r14, 0x24)
    3266:	0c62      	bf      	0x332a	// 332a <__divdf3+0xf6>
    3268:	3b42      	cmpnei      	r3, 2
    326a:	0c60      	bf      	0x332a	// 332a <__divdf3+0xf6>
    326c:	3944      	cmpnei      	r1, 4
    326e:	0c62      	bf      	0x3332	// 3332 <__divdf3+0xfe>
    3270:	3942      	cmpnei      	r1, 2
    3272:	0c82      	bf      	0x3376	// 3376 <__divdf3+0x142>
    3274:	982a      	ld.w      	r1, (r14, 0x28)
    3276:	986f      	ld.w      	r3, (r14, 0x3c)
    3278:	604e      	subu      	r1, r3
    327a:	9890      	ld.w      	r4, (r14, 0x40)
    327c:	98b1      	ld.w      	r5, (r14, 0x44)
    327e:	984b      	ld.w      	r2, (r14, 0x2c)
    3280:	986c      	ld.w      	r3, (r14, 0x30)
    3282:	654c      	cmphs      	r3, r5
    3284:	b82a      	st.w      	r1, (r14, 0x28)
    3286:	6d93      	mov      	r6, r4
    3288:	6dd7      	mov      	r7, r5
    328a:	0c05      	bf      	0x3294	// 3294 <__divdf3+0x60>
    328c:	64d6      	cmpne      	r5, r3
    328e:	080b      	bt      	0x32a4	// 32a4 <__divdf3+0x70>
    3290:	6508      	cmphs      	r2, r4
    3292:	0809      	bt      	0x32a4	// 32a4 <__divdf3+0x70>
    3294:	4a9f      	lsri      	r4, r2, 31
    3296:	4301      	lsli      	r0, r3, 1
    3298:	42a1      	lsli      	r5, r2, 1
    329a:	6d00      	or      	r4, r0
    329c:	2900      	subi      	r1, 1
    329e:	6c97      	mov      	r2, r5
    32a0:	6cd3      	mov      	r3, r4
    32a2:	b82a      	st.w      	r1, (r14, 0x28)
    32a4:	3000      	movi      	r0, 0
    32a6:	3100      	movi      	r1, 0
    32a8:	b802      	st.w      	r0, (r14, 0x8)
    32aa:	b823      	st.w      	r1, (r14, 0xc)
    32ac:	3180      	movi      	r1, 128
    32ae:	343d      	movi      	r4, 61
    32b0:	3000      	movi      	r0, 0
    32b2:	4135      	lsli      	r1, r1, 21
    32b4:	b8c0      	st.w      	r6, (r14, 0x0)
    32b6:	b8e1      	st.w      	r7, (r14, 0x4)
    32b8:	98a0      	ld.w      	r5, (r14, 0x0)
    32ba:	98c1      	ld.w      	r6, (r14, 0x4)
    32bc:	658c      	cmphs      	r3, r6
    32be:	0c10      	bf      	0x32de	// 32de <__divdf3+0xaa>
    32c0:	64da      	cmpne      	r6, r3
    32c2:	0803      	bt      	0x32c8	// 32c8 <__divdf3+0x94>
    32c4:	6548      	cmphs      	r2, r5
    32c6:	0c0c      	bf      	0x32de	// 32de <__divdf3+0xaa>
    32c8:	98a2      	ld.w      	r5, (r14, 0x8)
    32ca:	98c3      	ld.w      	r6, (r14, 0xc)
    32cc:	6d40      	or      	r5, r0
    32ce:	6d84      	or      	r6, r1
    32d0:	b8a2      	st.w      	r5, (r14, 0x8)
    32d2:	b8c3      	st.w      	r6, (r14, 0xc)
    32d4:	98a0      	ld.w      	r5, (r14, 0x0)
    32d6:	98c1      	ld.w      	r6, (r14, 0x4)
    32d8:	6488      	cmphs      	r2, r2
    32da:	6097      	subc      	r2, r5
    32dc:	60db      	subc      	r3, r6
    32de:	41bf      	lsli      	r5, r1, 31
    32e0:	48e1      	lsri      	r7, r0, 1
    32e2:	6d97      	mov      	r6, r5
    32e4:	49a1      	lsri      	r5, r1, 1
    32e6:	6d9c      	or      	r6, r7
    32e8:	6c57      	mov      	r1, r5
    32ea:	4abf      	lsri      	r5, r2, 31
    32ec:	6c1b      	mov      	r0, r6
    32ee:	2c00      	subi      	r4, 1
    32f0:	6d97      	mov      	r6, r5
    32f2:	43a1      	lsli      	r5, r3, 1
    32f4:	6d94      	or      	r6, r5
    32f6:	4261      	lsli      	r3, r2, 1
    32f8:	3c40      	cmpnei      	r4, 0
    32fa:	6dcf      	mov      	r7, r3
    32fc:	6c8f      	mov      	r2, r3
    32fe:	6cdb      	mov      	r3, r6
    3300:	0bdc      	bt      	0x32b8	// 32b8 <__divdf3+0x84>
    3302:	30ff      	movi      	r0, 255
    3304:	3100      	movi      	r1, 0
    3306:	9882      	ld.w      	r4, (r14, 0x8)
    3308:	98a3      	ld.w      	r5, (r14, 0xc)
    330a:	6900      	and      	r4, r0
    330c:	6944      	and      	r5, r1
    330e:	6c13      	mov      	r0, r4
    3310:	6c57      	mov      	r1, r5
    3312:	3480      	movi      	r4, 128
    3314:	6502      	cmpne      	r0, r4
    3316:	0c15      	bf      	0x3340	// 3340 <__divdf3+0x10c>
    3318:	9862      	ld.w      	r3, (r14, 0x8)
    331a:	9883      	ld.w      	r4, (r14, 0xc)
    331c:	b86b      	st.w      	r3, (r14, 0x2c)
    331e:	b88c      	st.w      	r4, (r14, 0x30)
    3320:	1808      	addi      	r0, r14, 32
    3322:	e0000171 	bsr      	0x3604	// 3604 <__pack_d>
    3326:	1412      	addi      	r14, r14, 72
    3328:	1494      	pop      	r4-r7, r15
    332a:	644e      	cmpne      	r3, r1
    332c:	0bfa      	bt      	0x3320	// 3320 <__divdf3+0xec>
    332e:	1016      	lrw      	r0, 0x8d04	// 3384 <__divdf3+0x150>
    3330:	07f9      	br      	0x3322	// 3322 <__divdf3+0xee>
    3332:	3300      	movi      	r3, 0
    3334:	3400      	movi      	r4, 0
    3336:	b86b      	st.w      	r3, (r14, 0x2c)
    3338:	b88c      	st.w      	r4, (r14, 0x30)
    333a:	b86a      	st.w      	r3, (r14, 0x28)
    333c:	1808      	addi      	r0, r14, 32
    333e:	07f2      	br      	0x3322	// 3322 <__divdf3+0xee>
    3340:	3940      	cmpnei      	r1, 0
    3342:	0beb      	bt      	0x3318	// 3318 <__divdf3+0xe4>
    3344:	3180      	movi      	r1, 128
    3346:	4121      	lsli      	r1, r1, 1
    3348:	9882      	ld.w      	r4, (r14, 0x8)
    334a:	98a3      	ld.w      	r5, (r14, 0xc)
    334c:	6850      	and      	r1, r4
    334e:	3940      	cmpnei      	r1, 0
    3350:	0be4      	bt      	0x3318	// 3318 <__divdf3+0xe4>
    3352:	6c98      	or      	r2, r6
    3354:	3a40      	cmpnei      	r2, 0
    3356:	0fe1      	bf      	0x3318	// 3318 <__divdf3+0xe4>
    3358:	3280      	movi      	r2, 128
    335a:	3300      	movi      	r3, 0
    335c:	6c13      	mov      	r0, r4
    335e:	6c57      	mov      	r1, r5
    3360:	6401      	cmplt      	r0, r0
    3362:	6009      	addc      	r0, r2
    3364:	604d      	addc      	r1, r3
    3366:	6c83      	mov      	r2, r0
    3368:	6cc7      	mov      	r3, r1
    336a:	6c0b      	mov      	r0, r2
    336c:	31ff      	movi      	r1, 255
    336e:	6805      	andn      	r0, r1
    3370:	b802      	st.w      	r0, (r14, 0x8)
    3372:	b863      	st.w      	r3, (r14, 0xc)
    3374:	07d2      	br      	0x3318	// 3318 <__divdf3+0xe4>
    3376:	3304      	movi      	r3, 4
    3378:	b868      	st.w      	r3, (r14, 0x20)
    337a:	1808      	addi      	r0, r14, 32
    337c:	07d3      	br      	0x3322	// 3322 <__divdf3+0xee>
    337e:	180d      	addi      	r0, r14, 52
    3380:	07d1      	br      	0x3322	// 3322 <__divdf3+0xee>
    3382:	0000      	bkpt
    3384:	00008d04 	.long	0x00008d04

00003388 <__gedf2>:
    3388:	14d0      	push      	r15
    338a:	142e      	subi      	r14, r14, 56
    338c:	b800      	st.w      	r0, (r14, 0x0)
    338e:	b821      	st.w      	r1, (r14, 0x4)
    3390:	6c3b      	mov      	r0, r14
    3392:	1904      	addi      	r1, r14, 16
    3394:	b863      	st.w      	r3, (r14, 0xc)
    3396:	b842      	st.w      	r2, (r14, 0x8)
    3398:	e0000204 	bsr      	0x37a0	// 37a0 <__unpack_d>
    339c:	1909      	addi      	r1, r14, 36
    339e:	1802      	addi      	r0, r14, 8
    33a0:	e0000200 	bsr      	0x37a0	// 37a0 <__unpack_d>
    33a4:	9864      	ld.w      	r3, (r14, 0x10)
    33a6:	3b01      	cmphsi      	r3, 2
    33a8:	0c0a      	bf      	0x33bc	// 33bc <__gedf2+0x34>
    33aa:	9869      	ld.w      	r3, (r14, 0x24)
    33ac:	3b01      	cmphsi      	r3, 2
    33ae:	0c07      	bf      	0x33bc	// 33bc <__gedf2+0x34>
    33b0:	1909      	addi      	r1, r14, 36
    33b2:	1804      	addi      	r0, r14, 16
    33b4:	e0000258 	bsr      	0x3864	// 3864 <__fpcmp_parts_d>
    33b8:	140e      	addi      	r14, r14, 56
    33ba:	1490      	pop      	r15
    33bc:	3000      	movi      	r0, 0
    33be:	2800      	subi      	r0, 1
    33c0:	140e      	addi      	r14, r14, 56
    33c2:	1490      	pop      	r15

000033c4 <__fixdfsi>:
    33c4:	14d0      	push      	r15
    33c6:	1427      	subi      	r14, r14, 28
    33c8:	b800      	st.w      	r0, (r14, 0x0)
    33ca:	b821      	st.w      	r1, (r14, 0x4)
    33cc:	6c3b      	mov      	r0, r14
    33ce:	1902      	addi      	r1, r14, 8
    33d0:	e00001e8 	bsr      	0x37a0	// 37a0 <__unpack_d>
    33d4:	9862      	ld.w      	r3, (r14, 0x8)
    33d6:	3b02      	cmphsi      	r3, 3
    33d8:	0c20      	bf      	0x3418	// 3418 <__fixdfsi+0x54>
    33da:	3b44      	cmpnei      	r3, 4
    33dc:	0c16      	bf      	0x3408	// 3408 <__fixdfsi+0x44>
    33de:	9864      	ld.w      	r3, (r14, 0x10)
    33e0:	3bdf      	btsti      	r3, 31
    33e2:	081b      	bt      	0x3418	// 3418 <__fixdfsi+0x54>
    33e4:	3b3e      	cmplti      	r3, 31
    33e6:	0c11      	bf      	0x3408	// 3408 <__fixdfsi+0x44>
    33e8:	323c      	movi      	r2, 60
    33ea:	5a6d      	subu      	r3, r2, r3
    33ec:	3200      	movi      	r2, 0
    33ee:	2a1f      	subi      	r2, 32
    33f0:	608c      	addu      	r2, r3
    33f2:	3adf      	btsti      	r2, 31
    33f4:	0815      	bt      	0x341e	// 341e <__fixdfsi+0x5a>
    33f6:	9806      	ld.w      	r0, (r14, 0x18)
    33f8:	7009      	lsr      	r0, r2
    33fa:	9863      	ld.w      	r3, (r14, 0xc)
    33fc:	3b40      	cmpnei      	r3, 0
    33fe:	0c0b      	bf      	0x3414	// 3414 <__fixdfsi+0x50>
    3400:	3300      	movi      	r3, 0
    3402:	5b01      	subu      	r0, r3, r0
    3404:	1407      	addi      	r14, r14, 28
    3406:	1490      	pop      	r15
    3408:	9863      	ld.w      	r3, (r14, 0xc)
    340a:	3b40      	cmpnei      	r3, 0
    340c:	3000      	movi      	r0, 0
    340e:	6001      	addc      	r0, r0
    3410:	1068      	lrw      	r3, 0x7fffffff	// 3430 <__fixdfsi+0x6c>
    3412:	600c      	addu      	r0, r3
    3414:	1407      	addi      	r14, r14, 28
    3416:	1490      	pop      	r15
    3418:	3000      	movi      	r0, 0
    341a:	1407      	addi      	r14, r14, 28
    341c:	1490      	pop      	r15
    341e:	9846      	ld.w      	r2, (r14, 0x18)
    3420:	311f      	movi      	r1, 31
    3422:	4241      	lsli      	r2, r2, 1
    3424:	604e      	subu      	r1, r3
    3426:	9805      	ld.w      	r0, (r14, 0x14)
    3428:	7084      	lsl      	r2, r1
    342a:	700d      	lsr      	r0, r3
    342c:	6c08      	or      	r0, r2
    342e:	07e6      	br      	0x33fa	// 33fa <__fixdfsi+0x36>
    3430:	7fffffff 	.long	0x7fffffff

00003434 <__floatunsidf>:
    3434:	14d2      	push      	r4-r5, r15
    3436:	1425      	subi      	r14, r14, 20
    3438:	3840      	cmpnei      	r0, 0
    343a:	3500      	movi      	r5, 0
    343c:	6d03      	mov      	r4, r0
    343e:	b8a1      	st.w      	r5, (r14, 0x4)
    3440:	0c15      	bf      	0x346a	// 346a <__floatunsidf+0x36>
    3442:	3303      	movi      	r3, 3
    3444:	b860      	st.w      	r3, (r14, 0x0)
    3446:	e0000021 	bsr      	0x3488	// 3488 <__clzsi2>
    344a:	321d      	movi      	r2, 29
    344c:	6080      	addu      	r2, r0
    344e:	2802      	subi      	r0, 3
    3450:	38df      	btsti      	r0, 31
    3452:	0813      	bt      	0x3478	// 3478 <__floatunsidf+0x44>
    3454:	7100      	lsl      	r4, r0
    3456:	b884      	st.w      	r4, (r14, 0x10)
    3458:	b8a3      	st.w      	r5, (r14, 0xc)
    345a:	333c      	movi      	r3, 60
    345c:	60ca      	subu      	r3, r2
    345e:	6c3b      	mov      	r0, r14
    3460:	b862      	st.w      	r3, (r14, 0x8)
    3462:	e00000d1 	bsr      	0x3604	// 3604 <__pack_d>
    3466:	1405      	addi      	r14, r14, 20
    3468:	1492      	pop      	r4-r5, r15
    346a:	3302      	movi      	r3, 2
    346c:	6c3b      	mov      	r0, r14
    346e:	b860      	st.w      	r3, (r14, 0x0)
    3470:	e00000ca 	bsr      	0x3604	// 3604 <__pack_d>
    3474:	1405      	addi      	r14, r14, 20
    3476:	1492      	pop      	r4-r5, r15
    3478:	311f      	movi      	r1, 31
    347a:	4c61      	lsri      	r3, r4, 1
    347c:	604a      	subu      	r1, r2
    347e:	70c5      	lsr      	r3, r1
    3480:	7108      	lsl      	r4, r2
    3482:	b864      	st.w      	r3, (r14, 0x10)
    3484:	b883      	st.w      	r4, (r14, 0xc)
    3486:	07ea      	br      	0x345a	// 345a <__floatunsidf+0x26>

00003488 <__clzsi2>:
    3488:	106d      	lrw      	r3, 0xffff	// 34bc <__clzsi2+0x34>
    348a:	640c      	cmphs      	r3, r0
    348c:	0c07      	bf      	0x349a	// 349a <__clzsi2+0x12>
    348e:	33ff      	movi      	r3, 255
    3490:	640c      	cmphs      	r3, r0
    3492:	0c0f      	bf      	0x34b0	// 34b0 <__clzsi2+0x28>
    3494:	3320      	movi      	r3, 32
    3496:	3200      	movi      	r2, 0
    3498:	0406      	br      	0x34a4	// 34a4 <__clzsi2+0x1c>
    349a:	106a      	lrw      	r3, 0xffffff	// 34c0 <__clzsi2+0x38>
    349c:	640c      	cmphs      	r3, r0
    349e:	080c      	bt      	0x34b6	// 34b6 <__clzsi2+0x2e>
    34a0:	3308      	movi      	r3, 8
    34a2:	3218      	movi      	r2, 24
    34a4:	7009      	lsr      	r0, r2
    34a6:	1048      	lrw      	r2, 0x8d18	// 34c4 <__clzsi2+0x3c>
    34a8:	6008      	addu      	r0, r2
    34aa:	8040      	ld.b      	r2, (r0, 0x0)
    34ac:	5b09      	subu      	r0, r3, r2
    34ae:	783c      	jmp      	r15
    34b0:	3318      	movi      	r3, 24
    34b2:	3208      	movi      	r2, 8
    34b4:	07f8      	br      	0x34a4	// 34a4 <__clzsi2+0x1c>
    34b6:	3310      	movi      	r3, 16
    34b8:	3210      	movi      	r2, 16
    34ba:	07f5      	br      	0x34a4	// 34a4 <__clzsi2+0x1c>
    34bc:	0000ffff 	.long	0x0000ffff
    34c0:	00ffffff 	.long	0x00ffffff
    34c4:	00008d18 	.long	0x00008d18

000034c8 <__pack_f>:
    34c8:	14c2      	push      	r4-r5
    34ca:	9040      	ld.w      	r2, (r0, 0x0)
    34cc:	3a01      	cmphsi      	r2, 2
    34ce:	9063      	ld.w      	r3, (r0, 0xc)
    34d0:	9021      	ld.w      	r1, (r0, 0x4)
    34d2:	0c27      	bf      	0x3520	// 3520 <__pack_f+0x58>
    34d4:	3a44      	cmpnei      	r2, 4
    34d6:	0c22      	bf      	0x351a	// 351a <__pack_f+0x52>
    34d8:	3a42      	cmpnei      	r2, 2
    34da:	0c1d      	bf      	0x3514	// 3514 <__pack_f+0x4c>
    34dc:	3b40      	cmpnei      	r3, 0
    34de:	0c1b      	bf      	0x3514	// 3514 <__pack_f+0x4c>
    34e0:	3400      	movi      	r4, 0
    34e2:	9042      	ld.w      	r2, (r0, 0x8)
    34e4:	2c7d      	subi      	r4, 126
    34e6:	6509      	cmplt      	r2, r4
    34e8:	082a      	bt      	0x353c	// 353c <__pack_f+0x74>
    34ea:	347f      	movi      	r4, 127
    34ec:	6491      	cmplt      	r4, r2
    34ee:	0816      	bt      	0x351a	// 351a <__pack_f+0x52>
    34f0:	690c      	and      	r4, r3
    34f2:	3540      	movi      	r5, 64
    34f4:	6552      	cmpne      	r4, r5
    34f6:	0c1a      	bf      	0x352a	// 352a <__pack_f+0x62>
    34f8:	233e      	addi      	r3, 63
    34fa:	3bdf      	btsti      	r3, 31
    34fc:	081d      	bt      	0x3536	// 3536 <__pack_f+0x6e>
    34fe:	227e      	addi      	r2, 127
    3500:	4302      	lsli      	r0, r3, 2
    3502:	4809      	lsri      	r0, r0, 9
    3504:	74c8      	zextb      	r3, r2
    3506:	4009      	lsli      	r0, r0, 9
    3508:	4377      	lsli      	r3, r3, 23
    350a:	4809      	lsri      	r0, r0, 9
    350c:	413f      	lsli      	r1, r1, 31
    350e:	6c0c      	or      	r0, r3
    3510:	6c04      	or      	r0, r1
    3512:	1482      	pop      	r4-r5
    3514:	3300      	movi      	r3, 0
    3516:	3000      	movi      	r0, 0
    3518:	07f7      	br      	0x3506	// 3506 <__pack_f+0x3e>
    351a:	33ff      	movi      	r3, 255
    351c:	3000      	movi      	r0, 0
    351e:	07f4      	br      	0x3506	// 3506 <__pack_f+0x3e>
    3520:	4303      	lsli      	r0, r3, 3
    3522:	480a      	lsri      	r0, r0, 10
    3524:	38b6      	bseti      	r0, 22
    3526:	33ff      	movi      	r3, 255
    3528:	07ef      	br      	0x3506	// 3506 <__pack_f+0x3e>
    352a:	3080      	movi      	r0, 128
    352c:	680c      	and      	r0, r3
    352e:	3840      	cmpnei      	r0, 0
    3530:	0fe5      	bf      	0x34fa	// 34fa <__pack_f+0x32>
    3532:	60d0      	addu      	r3, r4
    3534:	07e3      	br      	0x34fa	// 34fa <__pack_f+0x32>
    3536:	4b61      	lsri      	r3, r3, 1
    3538:	227f      	addi      	r2, 128
    353a:	07e3      	br      	0x3500	// 3500 <__pack_f+0x38>
    353c:	610a      	subu      	r4, r2
    353e:	3c39      	cmplti      	r4, 26
    3540:	0fea      	bf      	0x3514	// 3514 <__pack_f+0x4c>
    3542:	3201      	movi      	r2, 1
    3544:	7090      	lsl      	r2, r4
    3546:	2a00      	subi      	r2, 1
    3548:	6c0f      	mov      	r0, r3
    354a:	68c8      	and      	r3, r2
    354c:	3b40      	cmpnei      	r3, 0
    354e:	3300      	movi      	r3, 0
    3550:	7011      	lsr      	r0, r4
    3552:	60cd      	addc      	r3, r3
    3554:	6cc0      	or      	r3, r0
    3556:	307f      	movi      	r0, 127
    3558:	680c      	and      	r0, r3
    355a:	3240      	movi      	r2, 64
    355c:	6482      	cmpne      	r0, r2
    355e:	080d      	bt      	0x3578	// 3578 <__pack_f+0xb0>
    3560:	3280      	movi      	r2, 128
    3562:	688c      	and      	r2, r3
    3564:	3a40      	cmpnei      	r2, 0
    3566:	0c02      	bf      	0x356a	// 356a <__pack_f+0xa2>
    3568:	60c0      	addu      	r3, r0
    356a:	1045      	lrw      	r2, 0x3fffffff	// 357c <__pack_f+0xb4>
    356c:	64c8      	cmphs      	r2, r3
    356e:	4302      	lsli      	r0, r3, 2
    3570:	64c3      	mvcv      	r3
    3572:	4809      	lsri      	r0, r0, 9
    3574:	74cc      	zextb      	r3, r3
    3576:	07c8      	br      	0x3506	// 3506 <__pack_f+0x3e>
    3578:	233e      	addi      	r3, 63
    357a:	07f8      	br      	0x356a	// 356a <__pack_f+0xa2>
    357c:	3fffffff 	.long	0x3fffffff

00003580 <__unpack_f>:
    3580:	14c1      	push      	r4
    3582:	8861      	ld.h      	r3, (r0, 0x2)
    3584:	4371      	lsli      	r3, r3, 17
    3586:	9040      	ld.w      	r2, (r0, 0x0)
    3588:	4b78      	lsri      	r3, r3, 24
    358a:	8003      	ld.b      	r0, (r0, 0x3)
    358c:	4249      	lsli      	r2, r2, 9
    358e:	4807      	lsri      	r0, r0, 7
    3590:	3b40      	cmpnei      	r3, 0
    3592:	4a49      	lsri      	r2, r2, 9
    3594:	b101      	st.w      	r0, (r1, 0x4)
    3596:	0811      	bt      	0x35b8	// 35b8 <__unpack_f+0x38>
    3598:	3a40      	cmpnei      	r2, 0
    359a:	0c1a      	bf      	0x35ce	// 35ce <__unpack_f+0x4e>
    359c:	3303      	movi      	r3, 3
    359e:	b160      	st.w      	r3, (r1, 0x0)
    35a0:	3300      	movi      	r3, 0
    35a2:	4247      	lsli      	r2, r2, 7
    35a4:	2b7e      	subi      	r3, 127
    35a6:	1096      	lrw      	r4, 0x3fffffff	// 35fc <__unpack_f+0x7c>
    35a8:	4241      	lsli      	r2, r2, 1
    35aa:	6490      	cmphs      	r4, r2
    35ac:	6c0f      	mov      	r0, r3
    35ae:	2b00      	subi      	r3, 1
    35b0:	0bfc      	bt      	0x35a8	// 35a8 <__unpack_f+0x28>
    35b2:	b102      	st.w      	r0, (r1, 0x8)
    35b4:	b143      	st.w      	r2, (r1, 0xc)
    35b6:	1481      	pop      	r4
    35b8:	30ff      	movi      	r0, 255
    35ba:	640e      	cmpne      	r3, r0
    35bc:	0c0c      	bf      	0x35d4	// 35d4 <__unpack_f+0x54>
    35be:	2b7e      	subi      	r3, 127
    35c0:	4247      	lsli      	r2, r2, 7
    35c2:	b162      	st.w      	r3, (r1, 0x8)
    35c4:	3abe      	bseti      	r2, 30
    35c6:	3303      	movi      	r3, 3
    35c8:	b160      	st.w      	r3, (r1, 0x0)
    35ca:	b143      	st.w      	r2, (r1, 0xc)
    35cc:	1481      	pop      	r4
    35ce:	3302      	movi      	r3, 2
    35d0:	b160      	st.w      	r3, (r1, 0x0)
    35d2:	1481      	pop      	r4
    35d4:	3a40      	cmpnei      	r2, 0
    35d6:	0c0d      	bf      	0x35f0	// 35f0 <__unpack_f+0x70>
    35d8:	3380      	movi      	r3, 128
    35da:	436f      	lsli      	r3, r3, 15
    35dc:	68c8      	and      	r3, r2
    35de:	3b40      	cmpnei      	r3, 0
    35e0:	0c0b      	bf      	0x35f6	// 35f6 <__unpack_f+0x76>
    35e2:	3301      	movi      	r3, 1
    35e4:	b160      	st.w      	r3, (r1, 0x0)
    35e6:	1067      	lrw      	r3, 0x2000007f	// 3600 <__unpack_f+0x80>
    35e8:	4247      	lsli      	r2, r2, 7
    35ea:	688d      	andn      	r2, r3
    35ec:	b143      	st.w      	r2, (r1, 0xc)
    35ee:	1481      	pop      	r4
    35f0:	3304      	movi      	r3, 4
    35f2:	b160      	st.w      	r3, (r1, 0x0)
    35f4:	1481      	pop      	r4
    35f6:	b160      	st.w      	r3, (r1, 0x0)
    35f8:	07f7      	br      	0x35e6	// 35e6 <__unpack_f+0x66>
    35fa:	0000      	bkpt
    35fc:	3fffffff 	.long	0x3fffffff
    3600:	2000007f 	.long	0x2000007f

00003604 <__pack_d>:
    3604:	14c4      	push      	r4-r7
    3606:	1422      	subi      	r14, r14, 8
    3608:	9060      	ld.w      	r3, (r0, 0x0)
    360a:	3b01      	cmphsi      	r3, 2
    360c:	90c3      	ld.w      	r6, (r0, 0xc)
    360e:	90e4      	ld.w      	r7, (r0, 0x10)
    3610:	9021      	ld.w      	r1, (r0, 0x4)
    3612:	0c46      	bf      	0x369e	// 369e <__pack_d+0x9a>
    3614:	3b44      	cmpnei      	r3, 4
    3616:	0c40      	bf      	0x3696	// 3696 <__pack_d+0x92>
    3618:	3b42      	cmpnei      	r3, 2
    361a:	0c27      	bf      	0x3668	// 3668 <__pack_d+0x64>
    361c:	6cdb      	mov      	r3, r6
    361e:	6cdc      	or      	r3, r7
    3620:	3b40      	cmpnei      	r3, 0
    3622:	0c23      	bf      	0x3668	// 3668 <__pack_d+0x64>
    3624:	9062      	ld.w      	r3, (r0, 0x8)
    3626:	125a      	lrw      	r2, 0xfffffc02	// 378c <__pack_d+0x188>
    3628:	648d      	cmplt      	r3, r2
    362a:	0855      	bt      	0x36d4	// 36d4 <__pack_d+0xd0>
    362c:	1259      	lrw      	r2, 0x3ff	// 3790 <__pack_d+0x18c>
    362e:	64c9      	cmplt      	r2, r3
    3630:	0833      	bt      	0x3696	// 3696 <__pack_d+0x92>
    3632:	34ff      	movi      	r4, 255
    3634:	3500      	movi      	r5, 0
    3636:	6918      	and      	r4, r6
    3638:	695c      	and      	r5, r7
    363a:	3280      	movi      	r2, 128
    363c:	6492      	cmpne      	r4, r2
    363e:	0c3f      	bf      	0x36bc	// 36bc <__pack_d+0xb8>
    3640:	347f      	movi      	r4, 127
    3642:	3500      	movi      	r5, 0
    3644:	6599      	cmplt      	r6, r6
    3646:	6191      	addc      	r6, r4
    3648:	61d5      	addc      	r7, r5
    364a:	1253      	lrw      	r2, 0x1fffffff	// 3794 <__pack_d+0x190>
    364c:	65c8      	cmphs      	r2, r7
    364e:	0c1a      	bf      	0x3682	// 3682 <__pack_d+0x7e>
    3650:	1290      	lrw      	r4, 0x3ff	// 3790 <__pack_d+0x18c>
    3652:	610c      	addu      	r4, r3
    3654:	4718      	lsli      	r0, r7, 24
    3656:	4f68      	lsri      	r3, r7, 8
    3658:	4e48      	lsri      	r2, r6, 8
    365a:	6c80      	or      	r2, r0
    365c:	430c      	lsli      	r0, r3, 12
    365e:	486c      	lsri      	r3, r0, 12
    3660:	120e      	lrw      	r0, 0x7ff	// 3798 <__pack_d+0x194>
    3662:	6d4b      	mov      	r5, r2
    3664:	6900      	and      	r4, r0
    3666:	0404      	br      	0x366e	// 366e <__pack_d+0x6a>
    3668:	3400      	movi      	r4, 0
    366a:	3200      	movi      	r2, 0
    366c:	3300      	movi      	r3, 0
    366e:	430c      	lsli      	r0, r3, 12
    3670:	480c      	lsri      	r0, r0, 12
    3672:	4474      	lsli      	r3, r4, 20
    3674:	419f      	lsli      	r4, r1, 31
    3676:	6c43      	mov      	r1, r0
    3678:	6c4c      	or      	r1, r3
    367a:	6c50      	or      	r1, r4
    367c:	6c0b      	mov      	r0, r2
    367e:	1402      	addi      	r14, r14, 8
    3680:	1484      	pop      	r4-r7
    3682:	479f      	lsli      	r4, r7, 31
    3684:	4e01      	lsri      	r0, r6, 1
    3686:	6d00      	or      	r4, r0
    3688:	6d93      	mov      	r6, r4
    368a:	3480      	movi      	r4, 128
    368c:	4f41      	lsri      	r2, r7, 1
    368e:	4483      	lsli      	r4, r4, 3
    3690:	6dcb      	mov      	r7, r2
    3692:	610c      	addu      	r4, r3
    3694:	07e0      	br      	0x3654	// 3654 <__pack_d+0x50>
    3696:	1281      	lrw      	r4, 0x7ff	// 3798 <__pack_d+0x194>
    3698:	3200      	movi      	r2, 0
    369a:	3300      	movi      	r3, 0
    369c:	07e9      	br      	0x366e	// 366e <__pack_d+0x6a>
    369e:	4e08      	lsri      	r0, r6, 8
    36a0:	4798      	lsli      	r4, r7, 24
    36a2:	6d00      	or      	r4, r0
    36a4:	3580      	movi      	r5, 128
    36a6:	4705      	lsli      	r0, r7, 5
    36a8:	6c93      	mov      	r2, r4
    36aa:	486d      	lsri      	r3, r0, 13
    36ac:	3400      	movi      	r4, 0
    36ae:	45ac      	lsli      	r5, r5, 12
    36b0:	6c90      	or      	r2, r4
    36b2:	6cd4      	or      	r3, r5
    36b4:	430c      	lsli      	r0, r3, 12
    36b6:	486c      	lsri      	r3, r0, 12
    36b8:	1198      	lrw      	r4, 0x7ff	// 3798 <__pack_d+0x194>
    36ba:	07da      	br      	0x366e	// 366e <__pack_d+0x6a>
    36bc:	3d40      	cmpnei      	r5, 0
    36be:	0bc1      	bt      	0x3640	// 3640 <__pack_d+0x3c>
    36c0:	4241      	lsli      	r2, r2, 1
    36c2:	6898      	and      	r2, r6
    36c4:	3a40      	cmpnei      	r2, 0
    36c6:	0fc2      	bf      	0x364a	// 364a <__pack_d+0x46>
    36c8:	3480      	movi      	r4, 128
    36ca:	3500      	movi      	r5, 0
    36cc:	6599      	cmplt      	r6, r6
    36ce:	6191      	addc      	r6, r4
    36d0:	61d5      	addc      	r7, r5
    36d2:	07bc      	br      	0x364a	// 364a <__pack_d+0x46>
    36d4:	5a6d      	subu      	r3, r2, r3
    36d6:	3238      	movi      	r2, 56
    36d8:	64c9      	cmplt      	r2, r3
    36da:	0bc7      	bt      	0x3668	// 3668 <__pack_d+0x64>
    36dc:	3200      	movi      	r2, 0
    36de:	2a1f      	subi      	r2, 32
    36e0:	608c      	addu      	r2, r3
    36e2:	3adf      	btsti      	r2, 31
    36e4:	0848      	bt      	0x3774	// 3774 <__pack_d+0x170>
    36e6:	6c1f      	mov      	r0, r7
    36e8:	7009      	lsr      	r0, r2
    36ea:	b800      	st.w      	r0, (r14, 0x0)
    36ec:	3000      	movi      	r0, 0
    36ee:	b801      	st.w      	r0, (r14, 0x4)
    36f0:	3adf      	btsti      	r2, 31
    36f2:	083c      	bt      	0x376a	// 376a <__pack_d+0x166>
    36f4:	3301      	movi      	r3, 1
    36f6:	70c8      	lsl      	r3, r2
    36f8:	6d4f      	mov      	r5, r3
    36fa:	3300      	movi      	r3, 0
    36fc:	6d0f      	mov      	r4, r3
    36fe:	3200      	movi      	r2, 0
    3700:	3300      	movi      	r3, 0
    3702:	2a00      	subi      	r2, 1
    3704:	2b00      	subi      	r3, 1
    3706:	6511      	cmplt      	r4, r4
    3708:	6109      	addc      	r4, r2
    370a:	614d      	addc      	r5, r3
    370c:	6990      	and      	r6, r4
    370e:	69d4      	and      	r7, r5
    3710:	6d9c      	or      	r6, r7
    3712:	3e40      	cmpnei      	r6, 0
    3714:	3000      	movi      	r0, 0
    3716:	6001      	addc      	r0, r0
    3718:	6c83      	mov      	r2, r0
    371a:	3300      	movi      	r3, 0
    371c:	9880      	ld.w      	r4, (r14, 0x0)
    371e:	98a1      	ld.w      	r5, (r14, 0x4)
    3720:	6d08      	or      	r4, r2
    3722:	6d4c      	or      	r5, r3
    3724:	32ff      	movi      	r2, 255
    3726:	3300      	movi      	r3, 0
    3728:	6890      	and      	r2, r4
    372a:	68d4      	and      	r3, r5
    372c:	3080      	movi      	r0, 128
    372e:	640a      	cmpne      	r2, r0
    3730:	081b      	bt      	0x3766	// 3766 <__pack_d+0x162>
    3732:	3b40      	cmpnei      	r3, 0
    3734:	0819      	bt      	0x3766	// 3766 <__pack_d+0x162>
    3736:	3380      	movi      	r3, 128
    3738:	4361      	lsli      	r3, r3, 1
    373a:	68d0      	and      	r3, r4
    373c:	3b40      	cmpnei      	r3, 0
    373e:	0c06      	bf      	0x374a	// 374a <__pack_d+0x146>
    3740:	3280      	movi      	r2, 128
    3742:	3300      	movi      	r3, 0
    3744:	6511      	cmplt      	r4, r4
    3746:	6109      	addc      	r4, r2
    3748:	614d      	addc      	r5, r3
    374a:	4518      	lsli      	r0, r5, 24
    374c:	4c48      	lsri      	r2, r4, 8
    374e:	4d68      	lsri      	r3, r5, 8
    3750:	1093      	lrw      	r4, 0xfffffff	// 379c <__pack_d+0x198>
    3752:	6c80      	or      	r2, r0
    3754:	6550      	cmphs      	r4, r5
    3756:	430c      	lsli      	r0, r3, 12
    3758:	486c      	lsri      	r3, r0, 12
    375a:	3001      	movi      	r0, 1
    375c:	0c02      	bf      	0x3760	// 3760 <__pack_d+0x15c>
    375e:	3000      	movi      	r0, 0
    3760:	108e      	lrw      	r4, 0x7ff	// 3798 <__pack_d+0x194>
    3762:	6900      	and      	r4, r0
    3764:	0785      	br      	0x366e	// 366e <__pack_d+0x6a>
    3766:	327f      	movi      	r2, 127
    3768:	07ed      	br      	0x3742	// 3742 <__pack_d+0x13e>
    376a:	3201      	movi      	r2, 1
    376c:	708c      	lsl      	r2, r3
    376e:	3500      	movi      	r5, 0
    3770:	6d0b      	mov      	r4, r2
    3772:	07c6      	br      	0x36fe	// 36fe <__pack_d+0xfa>
    3774:	341f      	movi      	r4, 31
    3776:	610e      	subu      	r4, r3
    3778:	4701      	lsli      	r0, r7, 1
    377a:	7010      	lsl      	r0, r4
    377c:	6d1b      	mov      	r4, r6
    377e:	710d      	lsr      	r4, r3
    3780:	6d00      	or      	r4, r0
    3782:	6c1f      	mov      	r0, r7
    3784:	700d      	lsr      	r0, r3
    3786:	b880      	st.w      	r4, (r14, 0x0)
    3788:	b801      	st.w      	r0, (r14, 0x4)
    378a:	07b3      	br      	0x36f0	// 36f0 <__pack_d+0xec>
    378c:	fffffc02 	.long	0xfffffc02
    3790:	000003ff 	.long	0x000003ff
    3794:	1fffffff 	.long	0x1fffffff
    3798:	000007ff 	.long	0x000007ff
    379c:	0fffffff 	.long	0x0fffffff

000037a0 <__unpack_d>:
    37a0:	1423      	subi      	r14, r14, 12
    37a2:	b880      	st.w      	r4, (r14, 0x0)
    37a4:	b8c1      	st.w      	r6, (r14, 0x4)
    37a6:	b8e2      	st.w      	r7, (r14, 0x8)
    37a8:	8843      	ld.h      	r2, (r0, 0x6)
    37aa:	4251      	lsli      	r2, r2, 17
    37ac:	9061      	ld.w      	r3, (r0, 0x4)
    37ae:	9080      	ld.w      	r4, (r0, 0x0)
    37b0:	4a55      	lsri      	r2, r2, 21
    37b2:	8007      	ld.b      	r0, (r0, 0x7)
    37b4:	436c      	lsli      	r3, r3, 12
    37b6:	4807      	lsri      	r0, r0, 7
    37b8:	3a40      	cmpnei      	r2, 0
    37ba:	4b6c      	lsri      	r3, r3, 12
    37bc:	b101      	st.w      	r0, (r1, 0x4)
    37be:	0819      	bt      	0x37f0	// 37f0 <__unpack_d+0x50>
    37c0:	6c93      	mov      	r2, r4
    37c2:	6c8c      	or      	r2, r3
    37c4:	3a40      	cmpnei      	r2, 0
    37c6:	0c2d      	bf      	0x3820	// 3820 <__unpack_d+0x80>
    37c8:	4c58      	lsri      	r2, r4, 24
    37ca:	4368      	lsli      	r3, r3, 8
    37cc:	6cc8      	or      	r3, r2
    37ce:	3203      	movi      	r2, 3
    37d0:	4408      	lsli      	r0, r4, 8
    37d2:	b140      	st.w      	r2, (r1, 0x0)
    37d4:	1181      	lrw      	r4, 0xfffffc01	// 3858 <__unpack_d+0xb8>
    37d6:	11c2      	lrw      	r6, 0xfffffff	// 385c <__unpack_d+0xbc>
    37d8:	485f      	lsri      	r2, r0, 31
    37da:	4361      	lsli      	r3, r3, 1
    37dc:	6cc8      	or      	r3, r2
    37de:	64d8      	cmphs      	r6, r3
    37e0:	6c93      	mov      	r2, r4
    37e2:	4001      	lsli      	r0, r0, 1
    37e4:	2c00      	subi      	r4, 1
    37e6:	0bf9      	bt      	0x37d8	// 37d8 <__unpack_d+0x38>
    37e8:	b142      	st.w      	r2, (r1, 0x8)
    37ea:	b103      	st.w      	r0, (r1, 0xc)
    37ec:	b164      	st.w      	r3, (r1, 0x10)
    37ee:	0414      	br      	0x3816	// 3816 <__unpack_d+0x76>
    37f0:	101c      	lrw      	r0, 0x7ff	// 3860 <__unpack_d+0xc0>
    37f2:	640a      	cmpne      	r2, r0
    37f4:	0c19      	bf      	0x3826	// 3826 <__unpack_d+0x86>
    37f6:	1019      	lrw      	r0, 0xfffffc01	// 3858 <__unpack_d+0xb8>
    37f8:	6080      	addu      	r2, r0
    37fa:	b142      	st.w      	r2, (r1, 0x8)
    37fc:	3203      	movi      	r2, 3
    37fe:	43e8      	lsli      	r7, r3, 8
    3800:	b140      	st.w      	r2, (r1, 0x0)
    3802:	3380      	movi      	r3, 128
    3804:	4c58      	lsri      	r2, r4, 24
    3806:	6dc8      	or      	r7, r2
    3808:	44c8      	lsli      	r6, r4, 8
    380a:	3200      	movi      	r2, 0
    380c:	4375      	lsli      	r3, r3, 21
    380e:	6d88      	or      	r6, r2
    3810:	6dcc      	or      	r7, r3
    3812:	b1c3      	st.w      	r6, (r1, 0xc)
    3814:	b1e4      	st.w      	r7, (r1, 0x10)
    3816:	98e2      	ld.w      	r7, (r14, 0x8)
    3818:	98c1      	ld.w      	r6, (r14, 0x4)
    381a:	9880      	ld.w      	r4, (r14, 0x0)
    381c:	1403      	addi      	r14, r14, 12
    381e:	783c      	jmp      	r15
    3820:	3302      	movi      	r3, 2
    3822:	b160      	st.w      	r3, (r1, 0x0)
    3824:	07f9      	br      	0x3816	// 3816 <__unpack_d+0x76>
    3826:	6c93      	mov      	r2, r4
    3828:	6c8c      	or      	r2, r3
    382a:	3a40      	cmpnei      	r2, 0
    382c:	0c10      	bf      	0x384c	// 384c <__unpack_d+0xac>
    382e:	3280      	movi      	r2, 128
    3830:	424c      	lsli      	r2, r2, 12
    3832:	688c      	and      	r2, r3
    3834:	3a40      	cmpnei      	r2, 0
    3836:	0c0e      	bf      	0x3852	// 3852 <__unpack_d+0xb2>
    3838:	3201      	movi      	r2, 1
    383a:	b140      	st.w      	r2, (r1, 0x0)
    383c:	4c58      	lsri      	r2, r4, 24
    383e:	4368      	lsli      	r3, r3, 8
    3840:	6cc8      	or      	r3, r2
    3842:	4408      	lsli      	r0, r4, 8
    3844:	3b9b      	bclri      	r3, 27
    3846:	b103      	st.w      	r0, (r1, 0xc)
    3848:	b164      	st.w      	r3, (r1, 0x10)
    384a:	07e6      	br      	0x3816	// 3816 <__unpack_d+0x76>
    384c:	3304      	movi      	r3, 4
    384e:	b160      	st.w      	r3, (r1, 0x0)
    3850:	07e3      	br      	0x3816	// 3816 <__unpack_d+0x76>
    3852:	b140      	st.w      	r2, (r1, 0x0)
    3854:	07f4      	br      	0x383c	// 383c <__unpack_d+0x9c>
    3856:	0000      	bkpt
    3858:	fffffc01 	.long	0xfffffc01
    385c:	0fffffff 	.long	0x0fffffff
    3860:	000007ff 	.long	0x000007ff

00003864 <__fpcmp_parts_d>:
    3864:	14c1      	push      	r4
    3866:	9060      	ld.w      	r3, (r0, 0x0)
    3868:	3b01      	cmphsi      	r3, 2
    386a:	0c12      	bf      	0x388e	// 388e <__fpcmp_parts_d+0x2a>
    386c:	9140      	ld.w      	r2, (r1, 0x0)
    386e:	3a01      	cmphsi      	r2, 2
    3870:	0c0f      	bf      	0x388e	// 388e <__fpcmp_parts_d+0x2a>
    3872:	3b44      	cmpnei      	r3, 4
    3874:	0c17      	bf      	0x38a2	// 38a2 <__fpcmp_parts_d+0x3e>
    3876:	3a44      	cmpnei      	r2, 4
    3878:	0c0f      	bf      	0x3896	// 3896 <__fpcmp_parts_d+0x32>
    387a:	3b42      	cmpnei      	r3, 2
    387c:	0c0b      	bf      	0x3892	// 3892 <__fpcmp_parts_d+0x2e>
    387e:	3a42      	cmpnei      	r2, 2
    3880:	0c13      	bf      	0x38a6	// 38a6 <__fpcmp_parts_d+0x42>
    3882:	9061      	ld.w      	r3, (r0, 0x4)
    3884:	9141      	ld.w      	r2, (r1, 0x4)
    3886:	648e      	cmpne      	r3, r2
    3888:	0c14      	bf      	0x38b0	// 38b0 <__fpcmp_parts_d+0x4c>
    388a:	3b40      	cmpnei      	r3, 0
    388c:	0808      	bt      	0x389c	// 389c <__fpcmp_parts_d+0x38>
    388e:	3001      	movi      	r0, 1
    3890:	1481      	pop      	r4
    3892:	3a42      	cmpnei      	r2, 2
    3894:	0c28      	bf      	0x38e4	// 38e4 <__fpcmp_parts_d+0x80>
    3896:	9161      	ld.w      	r3, (r1, 0x4)
    3898:	3b40      	cmpnei      	r3, 0
    389a:	0bfa      	bt      	0x388e	// 388e <__fpcmp_parts_d+0x2a>
    389c:	3000      	movi      	r0, 0
    389e:	2800      	subi      	r0, 1
    38a0:	1481      	pop      	r4
    38a2:	3a44      	cmpnei      	r2, 4
    38a4:	0c22      	bf      	0x38e8	// 38e8 <__fpcmp_parts_d+0x84>
    38a6:	9061      	ld.w      	r3, (r0, 0x4)
    38a8:	3b40      	cmpnei      	r3, 0
    38aa:	0bf9      	bt      	0x389c	// 389c <__fpcmp_parts_d+0x38>
    38ac:	3001      	movi      	r0, 1
    38ae:	07f1      	br      	0x3890	// 3890 <__fpcmp_parts_d+0x2c>
    38b0:	9082      	ld.w      	r4, (r0, 0x8)
    38b2:	9142      	ld.w      	r2, (r1, 0x8)
    38b4:	6509      	cmplt      	r2, r4
    38b6:	0bea      	bt      	0x388a	// 388a <__fpcmp_parts_d+0x26>
    38b8:	6491      	cmplt      	r4, r2
    38ba:	080d      	bt      	0x38d4	// 38d4 <__fpcmp_parts_d+0x70>
    38bc:	9044      	ld.w      	r2, (r0, 0x10)
    38be:	9083      	ld.w      	r4, (r0, 0xc)
    38c0:	9103      	ld.w      	r0, (r1, 0xc)
    38c2:	9124      	ld.w      	r1, (r1, 0x10)
    38c4:	6484      	cmphs      	r1, r2
    38c6:	0fe2      	bf      	0x388a	// 388a <__fpcmp_parts_d+0x26>
    38c8:	644a      	cmpne      	r2, r1
    38ca:	0803      	bt      	0x38d0	// 38d0 <__fpcmp_parts_d+0x6c>
    38cc:	6500      	cmphs      	r0, r4
    38ce:	0fde      	bf      	0x388a	// 388a <__fpcmp_parts_d+0x26>
    38d0:	6448      	cmphs      	r2, r1
    38d2:	0805      	bt      	0x38dc	// 38dc <__fpcmp_parts_d+0x78>
    38d4:	3b40      	cmpnei      	r3, 0
    38d6:	0fe3      	bf      	0x389c	// 389c <__fpcmp_parts_d+0x38>
    38d8:	3001      	movi      	r0, 1
    38da:	07db      	br      	0x3890	// 3890 <__fpcmp_parts_d+0x2c>
    38dc:	6486      	cmpne      	r1, r2
    38de:	0803      	bt      	0x38e4	// 38e4 <__fpcmp_parts_d+0x80>
    38e0:	6410      	cmphs      	r4, r0
    38e2:	0ff9      	bf      	0x38d4	// 38d4 <__fpcmp_parts_d+0x70>
    38e4:	3000      	movi      	r0, 0
    38e6:	1481      	pop      	r4
    38e8:	9161      	ld.w      	r3, (r1, 0x4)
    38ea:	9041      	ld.w      	r2, (r0, 0x4)
    38ec:	5b09      	subu      	r0, r3, r2
    38ee:	1481      	pop      	r4

000038f0 <__cskyvprintfprintf>:
    38f0:	1424      	subi      	r14, r14, 16
    38f2:	b863      	st.w      	r3, (r14, 0xc)
    38f4:	b842      	st.w      	r2, (r14, 0x8)
    38f6:	b821      	st.w      	r1, (r14, 0x4)
    38f8:	b800      	st.w      	r0, (r14, 0x0)
    38fa:	14d0      	push      	r15
    38fc:	1421      	subi      	r14, r14, 4
    38fe:	9802      	ld.w      	r0, (r14, 0x8)
    3900:	1903      	addi      	r1, r14, 12
    3902:	b800      	st.w      	r0, (r14, 0x0)
    3904:	e000002e 	bsr      	0x3960	// 3960 <__cskyvprintfvprintf>
    3908:	1401      	addi      	r14, r14, 4
    390a:	d9ee2000 	ld.w      	r15, (r14, 0x0)
    390e:	1405      	addi      	r14, r14, 20
    3910:	783c      	jmp      	r15
	...

00003914 <__GI_puts>:
    3914:	14d1      	push      	r4, r15
    3916:	1085      	lrw      	r4, 0x200001f4	// 3928 <__GI_puts+0x14>
    3918:	9420      	ld.w      	r1, (r4, 0x0)
    391a:	e0000033 	bsr      	0x3980	// 3980 <__GI_fputs>
    391e:	9420      	ld.w      	r1, (r4, 0x0)
    3920:	300a      	movi      	r0, 10
    3922:	e0001349 	bsr      	0x5fb4	// 5fb4 <fputc>
    3926:	1491      	pop      	r4, r15
    3928:	200001f4 	.long	0x200001f4

0000392c <__stdio_outs>:
    392c:	14d3      	push      	r4-r6, r15
    392e:	10ac      	lrw      	r5, 0x200001f4	// 395c <__stdio_outs+0x30>
    3930:	6d03      	mov      	r4, r0
    3932:	9500      	ld.w      	r0, (r5, 0x0)
    3934:	6d87      	mov      	r6, r1
    3936:	2017      	addi      	r0, 24
    3938:	e00000fc 	bsr      	0x3b30	// 3b30 <__GI_os_critical_enter>
    393c:	6190      	addu      	r6, r4
    393e:	6592      	cmpne      	r4, r6
    3940:	0807      	bt      	0x394e	// 394e <__stdio_outs+0x22>
    3942:	9500      	ld.w      	r0, (r5, 0x0)
    3944:	2017      	addi      	r0, 24
    3946:	e00000f7 	bsr      	0x3b34	// 3b34 <__GI_os_critical_exit>
    394a:	3001      	movi      	r0, 1
    394c:	1493      	pop      	r4-r6, r15
    394e:	8400      	ld.b      	r0, (r4, 0x0)
    3950:	9520      	ld.w      	r1, (r5, 0x0)
    3952:	e0001331 	bsr      	0x5fb4	// 5fb4 <fputc>
    3956:	2400      	addi      	r4, 1
    3958:	07f3      	br      	0x393e	// 393e <__stdio_outs+0x12>
    395a:	0000      	bkpt
    395c:	200001f4 	.long	0x200001f4

00003960 <__cskyvprintfvprintf>:
    3960:	14d0      	push      	r15
    3962:	1422      	subi      	r14, r14, 8
    3964:	6c87      	mov      	r2, r1
    3966:	1026      	lrw      	r1, 0x392c	// 397c <__cskyvprintfvprintf+0x1c>
    3968:	3300      	movi      	r3, 0
    396a:	b821      	st.w      	r1, (r14, 0x4)
    396c:	6c43      	mov      	r1, r0
    396e:	6c3b      	mov      	r0, r14
    3970:	b860      	st.w      	r3, (r14, 0x0)
    3972:	e00000ff 	bsr      	0x3b70	// 3b70 <__v2_printf>
    3976:	1402      	addi      	r14, r14, 8
    3978:	1490      	pop      	r15
    397a:	0000      	bkpt
    397c:	0000392c 	.long	0x0000392c

00003980 <__GI_fputs>:
    3980:	14d4      	push      	r4-r7, r15
    3982:	1422      	subi      	r14, r14, 8
    3984:	3940      	cmpnei      	r1, 0
    3986:	6dc3      	mov      	r7, r0
    3988:	6d87      	mov      	r6, r1
    398a:	0806      	bt      	0x3996	// 3996 <__GI_fputs+0x16>
    398c:	3400      	movi      	r4, 0
    398e:	2c00      	subi      	r4, 1
    3990:	6c13      	mov      	r0, r4
    3992:	1402      	addi      	r14, r14, 8
    3994:	1494      	pop      	r4-r7, r15
    3996:	3018      	movi      	r0, 24
    3998:	6004      	addu      	r0, r1
    399a:	b800      	st.w      	r0, (r14, 0x0)
    399c:	e00000ca 	bsr      	0x3b30	// 3b30 <__GI_os_critical_enter>
    39a0:	3200      	movi      	r2, 0
    39a2:	6d5f      	mov      	r5, r7
    39a4:	2a00      	subi      	r2, 1
    39a6:	8500      	ld.b      	r0, (r5, 0x0)
    39a8:	3840      	cmpnei      	r0, 0
    39aa:	5d9d      	subu      	r4, r5, r7
    39ac:	0805      	bt      	0x39b6	// 39b6 <__GI_fputs+0x36>
    39ae:	9800      	ld.w      	r0, (r14, 0x0)
    39b0:	e00000c2 	bsr      	0x3b34	// 3b34 <__GI_os_critical_exit>
    39b4:	07ee      	br      	0x3990	// 3990 <__GI_fputs+0x10>
    39b6:	6c5b      	mov      	r1, r6
    39b8:	b841      	st.w      	r2, (r14, 0x4)
    39ba:	e00012fd 	bsr      	0x5fb4	// 5fb4 <fputc>
    39be:	9841      	ld.w      	r2, (r14, 0x4)
    39c0:	6482      	cmpne      	r0, r2
    39c2:	0fe5      	bf      	0x398c	// 398c <__GI_fputs+0xc>
    39c4:	2500      	addi      	r5, 1
    39c6:	07f0      	br      	0x39a6	// 39a6 <__GI_fputs+0x26>

000039c8 <__memset_fast>:
    39c8:	14c3      	push      	r4-r6
    39ca:	7444      	zextb      	r1, r1
    39cc:	3a40      	cmpnei      	r2, 0
    39ce:	0c1f      	bf      	0x3a0c	// 3a0c <__memset_fast+0x44>
    39d0:	6d43      	mov      	r5, r0
    39d2:	6d03      	mov      	r4, r0
    39d4:	3603      	movi      	r6, 3
    39d6:	6918      	and      	r4, r6
    39d8:	3c40      	cmpnei      	r4, 0
    39da:	0c1a      	bf      	0x3a0e	// 3a0e <__memset_fast+0x46>
    39dc:	a520      	st.b      	r1, (r5, 0x0)
    39de:	2a00      	subi      	r2, 1
    39e0:	3a40      	cmpnei      	r2, 0
    39e2:	0c15      	bf      	0x3a0c	// 3a0c <__memset_fast+0x44>
    39e4:	2500      	addi      	r5, 1
    39e6:	6d17      	mov      	r4, r5
    39e8:	3603      	movi      	r6, 3
    39ea:	6918      	and      	r4, r6
    39ec:	3c40      	cmpnei      	r4, 0
    39ee:	0c10      	bf      	0x3a0e	// 3a0e <__memset_fast+0x46>
    39f0:	a520      	st.b      	r1, (r5, 0x0)
    39f2:	2a00      	subi      	r2, 1
    39f4:	3a40      	cmpnei      	r2, 0
    39f6:	0c0b      	bf      	0x3a0c	// 3a0c <__memset_fast+0x44>
    39f8:	2500      	addi      	r5, 1
    39fa:	6d17      	mov      	r4, r5
    39fc:	3603      	movi      	r6, 3
    39fe:	6918      	and      	r4, r6
    3a00:	3c40      	cmpnei      	r4, 0
    3a02:	0c06      	bf      	0x3a0e	// 3a0e <__memset_fast+0x46>
    3a04:	a520      	st.b      	r1, (r5, 0x0)
    3a06:	2a00      	subi      	r2, 1
    3a08:	2500      	addi      	r5, 1
    3a0a:	0402      	br      	0x3a0e	// 3a0e <__memset_fast+0x46>
    3a0c:	1483      	pop      	r4-r6
    3a0e:	4168      	lsli      	r3, r1, 8
    3a10:	6c4c      	or      	r1, r3
    3a12:	4170      	lsli      	r3, r1, 16
    3a14:	6c4c      	or      	r1, r3
    3a16:	3a2f      	cmplti      	r2, 16
    3a18:	0809      	bt      	0x3a2a	// 3a2a <__memset_fast+0x62>
    3a1a:	b520      	st.w      	r1, (r5, 0x0)
    3a1c:	b521      	st.w      	r1, (r5, 0x4)
    3a1e:	b522      	st.w      	r1, (r5, 0x8)
    3a20:	b523      	st.w      	r1, (r5, 0xc)
    3a22:	2a0f      	subi      	r2, 16
    3a24:	250f      	addi      	r5, 16
    3a26:	3a2f      	cmplti      	r2, 16
    3a28:	0ff9      	bf      	0x3a1a	// 3a1a <__memset_fast+0x52>
    3a2a:	3a23      	cmplti      	r2, 4
    3a2c:	0806      	bt      	0x3a38	// 3a38 <__memset_fast+0x70>
    3a2e:	2a03      	subi      	r2, 4
    3a30:	b520      	st.w      	r1, (r5, 0x0)
    3a32:	2503      	addi      	r5, 4
    3a34:	3a23      	cmplti      	r2, 4
    3a36:	0ffc      	bf      	0x3a2e	// 3a2e <__memset_fast+0x66>
    3a38:	3a40      	cmpnei      	r2, 0
    3a3a:	0fe9      	bf      	0x3a0c	// 3a0c <__memset_fast+0x44>
    3a3c:	2a00      	subi      	r2, 1
    3a3e:	a520      	st.b      	r1, (r5, 0x0)
    3a40:	3a40      	cmpnei      	r2, 0
    3a42:	0fe5      	bf      	0x3a0c	// 3a0c <__memset_fast+0x44>
    3a44:	2a00      	subi      	r2, 1
    3a46:	a521      	st.b      	r1, (r5, 0x1)
    3a48:	3a40      	cmpnei      	r2, 0
    3a4a:	0fe1      	bf      	0x3a0c	// 3a0c <__memset_fast+0x44>
    3a4c:	a522      	st.b      	r1, (r5, 0x2)
    3a4e:	1483      	pop      	r4-r6

00003a50 <__strlen_fast>:
    3a50:	6c43      	mov      	r1, r0
    3a52:	3203      	movi      	r2, 3
    3a54:	6808      	and      	r0, r2
    3a56:	3840      	cmpnei      	r0, 0
    3a58:	0c08      	bf      	0x3a68	// 3a68 <__strlen_fast+0x18>
    3a5a:	3000      	movi      	r0, 0
    3a5c:	8140      	ld.b      	r2, (r1, 0x0)
    3a5e:	3a40      	cmpnei      	r2, 0
    3a60:	0c20      	bf      	0x3aa0	// 3aa0 <__strlen_fast+0x50>
    3a62:	2100      	addi      	r1, 1
    3a64:	2000      	addi      	r0, 1
    3a66:	07fb      	br      	0x3a5c	// 3a5c <__strlen_fast+0xc>
    3a68:	9140      	ld.w      	r2, (r1, 0x0)
    3a6a:	680b      	tstnbz      	r2
    3a6c:	0c04      	bf      	0x3a74	// 3a74 <__strlen_fast+0x24>
    3a6e:	2103      	addi      	r1, 4
    3a70:	2003      	addi      	r0, 4
    3a72:	07fb      	br      	0x3a68	// 3a68 <__strlen_fast+0x18>
    3a74:	31ff      	movi      	r1, 255
    3a76:	6ccb      	mov      	r3, r2
    3a78:	68c4      	and      	r3, r1
    3a7a:	3b40      	cmpnei      	r3, 0
    3a7c:	0c12      	bf      	0x3aa0	// 3aa0 <__strlen_fast+0x50>
    3a7e:	2000      	addi      	r0, 1
    3a80:	3110      	movi      	r1, 16
    3a82:	6ccb      	mov      	r3, r2
    3a84:	70c4      	lsl      	r3, r1
    3a86:	3118      	movi      	r1, 24
    3a88:	70c5      	lsr      	r3, r1
    3a8a:	3b40      	cmpnei      	r3, 0
    3a8c:	0c0a      	bf      	0x3aa0	// 3aa0 <__strlen_fast+0x50>
    3a8e:	2000      	addi      	r0, 1
    3a90:	3108      	movi      	r1, 8
    3a92:	6ccb      	mov      	r3, r2
    3a94:	70c4      	lsl      	r3, r1
    3a96:	3118      	movi      	r1, 24
    3a98:	70c5      	lsr      	r3, r1
    3a9a:	3b40      	cmpnei      	r3, 0
    3a9c:	0c02      	bf      	0x3aa0	// 3aa0 <__strlen_fast+0x50>
    3a9e:	2000      	addi      	r0, 1
    3aa0:	783c      	jmp      	r15
	...

00003aa4 <__GI_strstr>:
    3aa4:	14c2      	push      	r4-r5
    3aa6:	6d07      	mov      	r4, r1
    3aa8:	6d43      	mov      	r5, r0
    3aaa:	8440      	ld.b      	r2, (r4, 0x0)
    3aac:	3a40      	cmpnei      	r2, 0
    3aae:	0c0c      	bf      	0x3ac6	// 3ac6 <__GI_strstr+0x22>
    3ab0:	8560      	ld.b      	r3, (r5, 0x0)
    3ab2:	64ca      	cmpne      	r2, r3
    3ab4:	0804      	bt      	0x3abc	// 3abc <__GI_strstr+0x18>
    3ab6:	2400      	addi      	r4, 1
    3ab8:	2500      	addi      	r5, 1
    3aba:	07f8      	br      	0x3aaa	// 3aaa <__GI_strstr+0x6>
    3abc:	3b40      	cmpnei      	r3, 0
    3abe:	0c03      	bf      	0x3ac4	// 3ac4 <__GI_strstr+0x20>
    3ac0:	2000      	addi      	r0, 1
    3ac2:	07f2      	br      	0x3aa6	// 3aa6 <__GI_strstr+0x2>
    3ac4:	6c0f      	mov      	r0, r3
    3ac6:	1482      	pop      	r4-r5

00003ac8 <__memcpy_fast>:
    3ac8:	14c3      	push      	r4-r6
    3aca:	6d83      	mov      	r6, r0
    3acc:	6d07      	mov      	r4, r1
    3ace:	6d18      	or      	r4, r6
    3ad0:	3303      	movi      	r3, 3
    3ad2:	690c      	and      	r4, r3
    3ad4:	3c40      	cmpnei      	r4, 0
    3ad6:	0c0b      	bf      	0x3aec	// 3aec <__memcpy_fast+0x24>
    3ad8:	3a40      	cmpnei      	r2, 0
    3ada:	0c08      	bf      	0x3aea	// 3aea <__memcpy_fast+0x22>
    3adc:	8160      	ld.b      	r3, (r1, 0x0)
    3ade:	2100      	addi      	r1, 1
    3ae0:	2a00      	subi      	r2, 1
    3ae2:	a660      	st.b      	r3, (r6, 0x0)
    3ae4:	2600      	addi      	r6, 1
    3ae6:	3a40      	cmpnei      	r2, 0
    3ae8:	0bfa      	bt      	0x3adc	// 3adc <__memcpy_fast+0x14>
    3aea:	1483      	pop      	r4-r6
    3aec:	3a2f      	cmplti      	r2, 16
    3aee:	080e      	bt      	0x3b0a	// 3b0a <__memcpy_fast+0x42>
    3af0:	91a0      	ld.w      	r5, (r1, 0x0)
    3af2:	9161      	ld.w      	r3, (r1, 0x4)
    3af4:	9182      	ld.w      	r4, (r1, 0x8)
    3af6:	b6a0      	st.w      	r5, (r6, 0x0)
    3af8:	91a3      	ld.w      	r5, (r1, 0xc)
    3afa:	b661      	st.w      	r3, (r6, 0x4)
    3afc:	b682      	st.w      	r4, (r6, 0x8)
    3afe:	b6a3      	st.w      	r5, (r6, 0xc)
    3b00:	2a0f      	subi      	r2, 16
    3b02:	210f      	addi      	r1, 16
    3b04:	260f      	addi      	r6, 16
    3b06:	3a2f      	cmplti      	r2, 16
    3b08:	0ff4      	bf      	0x3af0	// 3af0 <__memcpy_fast+0x28>
    3b0a:	3a23      	cmplti      	r2, 4
    3b0c:	0808      	bt      	0x3b1c	// 3b1c <__memcpy_fast+0x54>
    3b0e:	9160      	ld.w      	r3, (r1, 0x0)
    3b10:	2a03      	subi      	r2, 4
    3b12:	2103      	addi      	r1, 4
    3b14:	b660      	st.w      	r3, (r6, 0x0)
    3b16:	2603      	addi      	r6, 4
    3b18:	3a23      	cmplti      	r2, 4
    3b1a:	0ffa      	bf      	0x3b0e	// 3b0e <__memcpy_fast+0x46>
    3b1c:	3a40      	cmpnei      	r2, 0
    3b1e:	0fe6      	bf      	0x3aea	// 3aea <__memcpy_fast+0x22>
    3b20:	8160      	ld.b      	r3, (r1, 0x0)
    3b22:	2100      	addi      	r1, 1
    3b24:	2a00      	subi      	r2, 1
    3b26:	a660      	st.b      	r3, (r6, 0x0)
    3b28:	2600      	addi      	r6, 1
    3b2a:	07f9      	br      	0x3b1c	// 3b1c <__memcpy_fast+0x54>

00003b2c <__GI_os_critical_open>:
    3b2c:	3000      	movi      	r0, 0
    3b2e:	783c      	jmp      	r15

00003b30 <__GI_os_critical_enter>:
    3b30:	3000      	movi      	r0, 0
    3b32:	783c      	jmp      	r15

00003b34 <__GI_os_critical_exit>:
    3b34:	3000      	movi      	r0, 0
    3b36:	783c      	jmp      	r15

00003b38 <__GI_os_critical_close>:
    3b38:	3000      	movi      	r0, 0
    3b3a:	783c      	jmp      	r15

00003b3c <PAD.1851>:
    3b3c:	14d4      	push      	r4-r7, r15
    3b3e:	3820      	cmplti      	r0, 1
    3b40:	6d03      	mov      	r4, r0
    3b42:	6d47      	mov      	r5, r1
    3b44:	6df7      	mov      	r7, r13
    3b46:	080d      	bt      	0x3b60	// 3b60 <PAD.1851+0x24>
    3b48:	6d83      	mov      	r6, r0
    3b4a:	3e30      	cmplti      	r6, 17
    3b4c:	9700      	ld.w      	r0, (r7, 0x0)
    3b4e:	0c0a      	bf      	0x3b62	// 3b62 <PAD.1851+0x26>
    3b50:	5c63      	subi      	r3, r4, 1
    3b52:	4b24      	lsri      	r1, r3, 4
    3b54:	4164      	lsli      	r3, r1, 4
    3b56:	9040      	ld.w      	r2, (r0, 0x0)
    3b58:	5c2d      	subu      	r1, r4, r3
    3b5a:	9081      	ld.w      	r4, (r0, 0x4)
    3b5c:	6c17      	mov      	r0, r5
    3b5e:	7bd1      	jsr      	r4
    3b60:	1494      	pop      	r4-r7, r15
    3b62:	9040      	ld.w      	r2, (r0, 0x0)
    3b64:	9061      	ld.w      	r3, (r0, 0x4)
    3b66:	3110      	movi      	r1, 16
    3b68:	6c17      	mov      	r0, r5
    3b6a:	7bcd      	jsr      	r3
    3b6c:	2e0f      	subi      	r6, 16
    3b6e:	07ee      	br      	0x3b4a	// 3b4a <PAD.1851+0xe>

00003b70 <__v2_printf>:
    3b70:	14d4      	push      	r4-r7, r15
    3b72:	143c      	subi      	r14, r14, 112
    3b74:	b826      	st.w      	r1, (r14, 0x18)
    3b76:	1912      	addi      	r1, r14, 72
    3b78:	1b21      	addi      	r3, r14, 132
    3b7a:	b810      	st.w      	r0, (r14, 0x40)
    3b7c:	2100      	addi      	r1, 1
    3b7e:	3000      	movi      	r0, 0
    3b80:	6d4b      	mov      	r5, r2
    3b82:	b871      	st.w      	r3, (r14, 0x44)
    3b84:	b80a      	st.w      	r0, (r14, 0x28)
    3b86:	b809      	st.w      	r0, (r14, 0x24)
    3b88:	b82d      	st.w      	r1, (r14, 0x34)
    3b8a:	9886      	ld.w      	r4, (r14, 0x18)
    3b8c:	3325      	movi      	r3, 37
    3b8e:	84c0      	ld.b      	r6, (r4, 0x0)
    3b90:	3e40      	cmpnei      	r6, 0
    3b92:	0c03      	bf      	0x3b98	// 3b98 <__v2_printf+0x28>
    3b94:	64da      	cmpne      	r6, r3
    3b96:	0845      	bt      	0x3c20	// 3c20 <__v2_printf+0xb0>
    3b98:	9846      	ld.w      	r2, (r14, 0x18)
    3b9a:	5cc9      	subu      	r6, r4, r2
    3b9c:	3e40      	cmpnei      	r6, 0
    3b9e:	0c0a      	bf      	0x3bb2	// 3bb2 <__v2_printf+0x42>
    3ba0:	9870      	ld.w      	r3, (r14, 0x40)
    3ba2:	9340      	ld.w      	r2, (r3, 0x0)
    3ba4:	6c5b      	mov      	r1, r6
    3ba6:	9361      	ld.w      	r3, (r3, 0x4)
    3ba8:	9806      	ld.w      	r0, (r14, 0x18)
    3baa:	7bcd      	jsr      	r3
    3bac:	9809      	ld.w      	r0, (r14, 0x24)
    3bae:	6018      	addu      	r0, r6
    3bb0:	b809      	st.w      	r0, (r14, 0x24)
    3bb2:	8420      	ld.b      	r1, (r4, 0x0)
    3bb4:	3940      	cmpnei      	r1, 0
    3bb6:	0803      	bt      	0x3bbc	// 3bbc <__v2_printf+0x4c>
    3bb8:	e8000367 	br      	0x4286	// 4286 <__v2_printf+0x716>
    3bbc:	3637      	movi      	r6, 55
    3bbe:	1a01      	addi      	r2, r14, 4
    3bc0:	3700      	movi      	r7, 0
    3bc2:	6188      	addu      	r6, r2
    3bc4:	a6e0      	st.b      	r7, (r6, 0x0)
    3bc6:	3300      	movi      	r3, 0
    3bc8:	3600      	movi      	r6, 0
    3bca:	2400      	addi      	r4, 1
    3bcc:	3000      	movi      	r0, 0
    3bce:	3100      	movi      	r1, 0
    3bd0:	2e00      	subi      	r6, 1
    3bd2:	b867      	st.w      	r3, (r14, 0x1c)
    3bd4:	3700      	movi      	r7, 0
    3bd6:	5c42      	addi      	r2, r4, 1
    3bd8:	b846      	st.w      	r2, (r14, 0x18)
    3bda:	8480      	ld.b      	r4, (r4, 0x0)
    3bdc:	3364      	movi      	r3, 100
    3bde:	64d2      	cmpne      	r4, r3
    3be0:	0d90      	bf      	0x3f00	// 3f00 <__v2_printf+0x390>
    3be2:	650d      	cmplt      	r3, r4
    3be4:	084e      	bt      	0x3c80	// 3c80 <__v2_printf+0x110>
    3be6:	322e      	movi      	r2, 46
    3be8:	6492      	cmpne      	r4, r2
    3bea:	0d41      	bf      	0x3e6c	// 3e6c <__v2_printf+0x2fc>
    3bec:	6509      	cmplt      	r2, r4
    3bee:	0829      	bt      	0x3c40	// 3c40 <__v2_printf+0xd0>
    3bf0:	332a      	movi      	r3, 42
    3bf2:	64d2      	cmpne      	r4, r3
    3bf4:	0d31      	bf      	0x3e56	// 3e56 <__v2_printf+0x2e6>
    3bf6:	650d      	cmplt      	r3, r4
    3bf8:	081c      	bt      	0x3c30	// 3c30 <__v2_printf+0xc0>
    3bfa:	3220      	movi      	r2, 32
    3bfc:	6492      	cmpne      	r4, r2
    3bfe:	0d25      	bf      	0x3e48	// 3e48 <__v2_printf+0x2d8>
    3c00:	3323      	movi      	r3, 35
    3c02:	64d2      	cmpne      	r4, r3
    3c04:	0d27      	bf      	0x3e52	// 3e52 <__v2_printf+0x2e2>
    3c06:	3c40      	cmpnei      	r4, 0
    3c08:	0803      	bt      	0x3c0e	// 3c0e <__v2_printf+0x9e>
    3c0a:	e800033e 	br      	0x4286	// 4286 <__v2_printf+0x716>
    3c0e:	1e12      	addi      	r6, r14, 72
    3c10:	3037      	movi      	r0, 55
    3c12:	1a01      	addi      	r2, r14, 4
    3c14:	a680      	st.b      	r4, (r6, 0x0)
    3c16:	6008      	addu      	r0, r2
    3c18:	3400      	movi      	r4, 0
    3c1a:	a080      	st.b      	r4, (r0, 0x0)
    3c1c:	b8a5      	st.w      	r5, (r14, 0x14)
    3c1e:	042c      	br      	0x3c76	// 3c76 <__v2_printf+0x106>
    3c20:	2400      	addi      	r4, 1
    3c22:	07b6      	br      	0x3b8e	// 3b8e <__v2_printf+0x1e>
    3c24:	3001      	movi      	r0, 1
    3c26:	312b      	movi      	r1, 43
    3c28:	9886      	ld.w      	r4, (r14, 0x18)
    3c2a:	07d6      	br      	0x3bd6	// 3bd6 <__v2_printf+0x66>
    3c2c:	6d4f      	mov      	r5, r3
    3c2e:	07fd      	br      	0x3c28	// 3c28 <__v2_printf+0xb8>
    3c30:	322b      	movi      	r2, 43
    3c32:	6492      	cmpne      	r4, r2
    3c34:	0ff8      	bf      	0x3c24	// 3c24 <__v2_printf+0xb4>
    3c36:	332d      	movi      	r3, 45
    3c38:	64d2      	cmpne      	r4, r3
    3c3a:	0be6      	bt      	0x3c06	// 3c06 <__v2_printf+0x96>
    3c3c:	3fa2      	bseti      	r7, 2
    3c3e:	07f5      	br      	0x3c28	// 3c28 <__v2_printf+0xb8>
    3c40:	3339      	movi      	r3, 57
    3c42:	650d      	cmplt      	r3, r4
    3c44:	0809      	bt      	0x3c56	// 3c56 <__v2_printf+0xe6>
    3c46:	3231      	movi      	r2, 49
    3c48:	6491      	cmplt      	r4, r2
    3c4a:	0d34      	bf      	0x3eb2	// 3eb2 <__v2_printf+0x342>
    3c4c:	3330      	movi      	r3, 48
    3c4e:	64d2      	cmpne      	r4, r3
    3c50:	0bdb      	bt      	0x3c06	// 3c06 <__v2_printf+0x96>
    3c52:	3fa7      	bseti      	r7, 7
    3c54:	07ea      	br      	0x3c28	// 3c28 <__v2_printf+0xb8>
    3c56:	3258      	movi      	r2, 88
    3c58:	6492      	cmpne      	r4, r2
    3c5a:	0cd3      	bf      	0x3e00	// 3e00 <__v2_printf+0x290>
    3c5c:	3063      	movi      	r0, 99
    3c5e:	6412      	cmpne      	r4, r0
    3c60:	0bd3      	bt      	0x3c06	// 3c06 <__v2_printf+0x96>
    3c62:	3337      	movi      	r3, 55
    3c64:	1a01      	addi      	r2, r14, 4
    3c66:	5d2e      	addi      	r1, r5, 4
    3c68:	85c0      	ld.b      	r6, (r5, 0x0)
    3c6a:	3400      	movi      	r4, 0
    3c6c:	1d12      	addi      	r5, r14, 72
    3c6e:	60c8      	addu      	r3, r2
    3c70:	b825      	st.w      	r1, (r14, 0x14)
    3c72:	a5c0      	st.b      	r6, (r5, 0x0)
    3c74:	a380      	st.b      	r4, (r3, 0x0)
    3c76:	3601      	movi      	r6, 1
    3c78:	3500      	movi      	r5, 0
    3c7a:	1c12      	addi      	r4, r14, 72
    3c7c:	e8000295 	br      	0x41a6	// 41a6 <__v2_printf+0x636>
    3c80:	336d      	movi      	r3, 109
    3c82:	64d2      	cmpne      	r4, r3
    3c84:	0d2d      	bf      	0x3ede	// 3ede <__v2_printf+0x36e>
    3c86:	650d      	cmplt      	r3, r4
    3c88:	0883      	bt      	0x3d8e	// 3d8e <__v2_printf+0x21e>
    3c8a:	3268      	movi      	r2, 104
    3c8c:	6492      	cmpne      	r4, r2
    3c8e:	0d24      	bf      	0x3ed6	// 3ed6 <__v2_printf+0x366>
    3c90:	6509      	cmplt      	r2, r4
    3c92:	086f      	bt      	0x3d70	// 3d70 <__v2_printf+0x200>
    3c94:	3366      	movi      	r3, 102
    3c96:	64d1      	cmplt      	r4, r3
    3c98:	0bb7      	bt      	0x3c06	// 3c06 <__v2_printf+0x96>
    3c9a:	3840      	cmpnei      	r0, 0
    3c9c:	0c05      	bf      	0x3ca6	// 3ca6 <__v2_printf+0x136>
    3c9e:	3037      	movi      	r0, 55
    3ca0:	1a01      	addi      	r2, r14, 4
    3ca2:	6008      	addu      	r0, r2
    3ca4:	a020      	st.b      	r1, (r0, 0x0)
    3ca6:	5d3e      	addi      	r1, r5, 8
    3ca8:	b825      	st.w      	r1, (r14, 0x14)
    3caa:	9500      	ld.w      	r0, (r5, 0x0)
    3cac:	9521      	ld.w      	r1, (r5, 0x4)
    3cae:	98a7      	ld.w      	r5, (r14, 0x1c)
    3cb0:	3d40      	cmpnei      	r5, 0
    3cb2:	0803      	bt      	0x3cb8	// 3cb8 <__v2_printf+0x148>
    3cb4:	3301      	movi      	r3, 1
    3cb6:	b867      	st.w      	r3, (r14, 0x1c)
    3cb8:	3200      	movi      	r2, 0
    3cba:	2a00      	subi      	r2, 1
    3cbc:	649a      	cmpne      	r6, r2
    3cbe:	0d58      	bf      	0x3f6e	// 3f6e <__v2_printf+0x3fe>
    3cc0:	6d5b      	mov      	r5, r6
    3cc2:	9867      	ld.w      	r3, (r14, 0x1c)
    3cc4:	b860      	st.w      	r3, (r14, 0x0)
    3cc6:	b8a1      	st.w      	r5, (r14, 0x4)
    3cc8:	3328      	movi      	r3, 40
    3cca:	1a12      	addi      	r2, r14, 72
    3ccc:	e00002f7 	bsr      	0x42ba	// 42ba <__GI___dtostr>
    3cd0:	3100      	movi      	r1, 0
    3cd2:	2900      	subi      	r1, 1
    3cd4:	645a      	cmpne      	r6, r1
    3cd6:	b808      	st.w      	r0, (r14, 0x20)
    3cd8:	0c1a      	bf      	0x3d0c	// 3d0c <__v2_printf+0x19c>
    3cda:	312e      	movi      	r1, 46
    3cdc:	980d      	ld.w      	r0, (r14, 0x34)
    3cde:	e00004fb 	bsr      	0x46d4	// 46d4 <__GI_strchr>
    3ce2:	3840      	cmpnei      	r0, 0
    3ce4:	98c8      	ld.w      	r6, (r14, 0x20)
    3ce6:	0d48      	bf      	0x3f76	// 3f76 <__v2_printf+0x406>
    3ce8:	3d40      	cmpnei      	r5, 0
    3cea:	0805      	bt      	0x3cf4	// 3cf4 <__v2_printf+0x184>
    3cec:	3101      	movi      	r1, 1
    3cee:	685c      	and      	r1, r7
    3cf0:	3940      	cmpnei      	r1, 0
    3cf2:	0d40      	bf      	0x3f72	// 3f72 <__v2_printf+0x402>
    3cf4:	58c2      	addi      	r6, r0, 1
    3cf6:	2500      	addi      	r5, 1
    3cf8:	5d59      	subu      	r2, r5, r6
    3cfa:	6080      	addu      	r2, r0
    3cfc:	3a20      	cmplti      	r2, 1
    3cfe:	0805      	bt      	0x3d08	// 3d08 <__v2_printf+0x198>
    3d00:	2600      	addi      	r6, 1
    3d02:	8660      	ld.b      	r3, (r6, 0x0)
    3d04:	3b40      	cmpnei      	r3, 0
    3d06:	0bf9      	bt      	0x3cf8	// 3cf8 <__v2_printf+0x188>
    3d08:	3500      	movi      	r5, 0
    3d0a:	a6a0      	st.b      	r5, (r6, 0x0)
    3d0c:	3067      	movi      	r0, 103
    3d0e:	6412      	cmpne      	r4, r0
    3d10:	0822      	bt      	0x3d54	// 3d54 <__v2_printf+0x1e4>
    3d12:	312e      	movi      	r1, 46
    3d14:	1812      	addi      	r0, r14, 72
    3d16:	e00004df 	bsr      	0x46d4	// 46d4 <__GI_strchr>
    3d1a:	3840      	cmpnei      	r0, 0
    3d1c:	6d03      	mov      	r4, r0
    3d1e:	0c1b      	bf      	0x3d54	// 3d54 <__v2_printf+0x1e4>
    3d20:	3165      	movi      	r1, 101
    3d22:	e00004d9 	bsr      	0x46d4	// 46d4 <__GI_strchr>
    3d26:	6c43      	mov      	r1, r0
    3d28:	84c0      	ld.b      	r6, (r4, 0x0)
    3d2a:	3e40      	cmpnei      	r6, 0
    3d2c:	0930      	bt      	0x3f8c	// 3f8c <__v2_printf+0x41c>
    3d2e:	3940      	cmpnei      	r1, 0
    3d30:	0c02      	bf      	0x3d34	// 3d34 <__v2_printf+0x1c4>
    3d32:	6d07      	mov      	r4, r1
    3d34:	3630      	movi      	r6, 48
    3d36:	5c63      	subi      	r3, r4, 1
    3d38:	8340      	ld.b      	r2, (r3, 0x0)
    3d3a:	658a      	cmpne      	r2, r6
    3d3c:	0d2a      	bf      	0x3f90	// 3f90 <__v2_printf+0x420>
    3d3e:	352e      	movi      	r5, 46
    3d40:	654a      	cmpne      	r2, r5
    3d42:	0802      	bt      	0x3d46	// 3d46 <__v2_printf+0x1d6>
    3d44:	6d0f      	mov      	r4, r3
    3d46:	3000      	movi      	r0, 0
    3d48:	3940      	cmpnei      	r1, 0
    3d4a:	a400      	st.b      	r0, (r4, 0x0)
    3d4c:	0c04      	bf      	0x3d54	// 3d54 <__v2_printf+0x1e4>
    3d4e:	6c13      	mov      	r0, r4
    3d50:	e000046a 	bsr      	0x4624	// 4624 <__strcpy_fast>
    3d54:	1912      	addi      	r1, r14, 72
    3d56:	81c0      	ld.b      	r6, (r1, 0x0)
    3d58:	332d      	movi      	r3, 45
    3d5a:	64da      	cmpne      	r6, r3
    3d5c:	0c02      	bf      	0x3d60	// 3d60 <__v2_printf+0x1f0>
    3d5e:	05ef      	br      	0x413c	// 413c <__v2_printf+0x5cc>
    3d60:	3437      	movi      	r4, 55
    3d62:	1801      	addi      	r0, r14, 4
    3d64:	352d      	movi      	r5, 45
    3d66:	6100      	addu      	r4, r0
    3d68:	a4a0      	st.b      	r5, (r4, 0x0)
    3d6a:	1912      	addi      	r1, r14, 72
    3d6c:	5982      	addi      	r4, r1, 1
    3d6e:	05ec      	br      	0x4146	// 4146 <__v2_printf+0x5d6>
    3d70:	3369      	movi      	r3, 105
    3d72:	64d2      	cmpne      	r4, r3
    3d74:	0cc6      	bf      	0x3f00	// 3f00 <__v2_printf+0x390>
    3d76:	326c      	movi      	r2, 108
    3d78:	6492      	cmpne      	r4, r2
    3d7a:	0b46      	bt      	0x3c06	// 3c06 <__v2_printf+0x96>
    3d7c:	9866      	ld.w      	r3, (r14, 0x18)
    3d7e:	8340      	ld.b      	r2, (r3, 0x0)
    3d80:	650a      	cmpne      	r2, r4
    3d82:	08ac      	bt      	0x3eda	// 3eda <__v2_printf+0x36a>
    3d84:	9886      	ld.w      	r4, (r14, 0x18)
    3d86:	2400      	addi      	r4, 1
    3d88:	b886      	st.w      	r4, (r14, 0x18)
    3d8a:	3fa5      	bseti      	r7, 5
    3d8c:	074e      	br      	0x3c28	// 3c28 <__v2_printf+0xb8>
    3d8e:	3371      	movi      	r3, 113
    3d90:	64d2      	cmpne      	r4, r3
    3d92:	0ffc      	bf      	0x3d8a	// 3d8a <__v2_printf+0x21a>
    3d94:	650d      	cmplt      	r3, r4
    3d96:	081a      	bt      	0x3dca	// 3dca <__v2_printf+0x25a>
    3d98:	306f      	movi      	r0, 111
    3d9a:	6412      	cmpne      	r4, r0
    3d9c:	0cfc      	bf      	0x3f94	// 3f94 <__v2_printf+0x424>
    3d9e:	3170      	movi      	r1, 112
    3da0:	6452      	cmpne      	r4, r1
    3da2:	0b32      	bt      	0x3c06	// 3c06 <__v2_printf+0x96>
    3da4:	5d4e      	addi      	r2, r5, 4
    3da6:	3400      	movi      	r4, 0
    3da8:	95a0      	ld.w      	r5, (r5, 0x0)
    3daa:	b845      	st.w      	r2, (r14, 0x14)
    3dac:	1901      	addi      	r1, r14, 4
    3dae:	3239      	movi      	r2, 57
    3db0:	b8a3      	st.w      	r5, (r14, 0xc)
    3db2:	b884      	st.w      	r4, (r14, 0x10)
    3db4:	3330      	movi      	r3, 48
    3db6:	180f      	addi      	r0, r14, 60
    3db8:	3578      	movi      	r5, 120
    3dba:	6084      	addu      	r2, r1
    3dbc:	0195      	lrw      	r4, 0x932a	// 40e4 <__v2_printf+0x574>
    3dbe:	3fa1      	bseti      	r7, 1
    3dc0:	a060      	st.b      	r3, (r0, 0x0)
    3dc2:	a2a0      	st.b      	r5, (r2, 0x0)
    3dc4:	b88a      	st.w      	r4, (r14, 0x28)
    3dc6:	3402      	movi      	r4, 2
    3dc8:	04f1      	br      	0x3faa	// 3faa <__v2_printf+0x43a>
    3dca:	3275      	movi      	r2, 117
    3dcc:	6492      	cmpne      	r4, r2
    3dce:	0d28      	bf      	0x401e	// 401e <__v2_printf+0x4ae>
    3dd0:	3378      	movi      	r3, 120
    3dd2:	64d2      	cmpne      	r4, r3
    3dd4:	0d44      	bf      	0x405c	// 405c <__v2_printf+0x4ec>
    3dd6:	3173      	movi      	r1, 115
    3dd8:	6452      	cmpne      	r4, r1
    3dda:	0b16      	bt      	0x3c06	// 3c06 <__v2_printf+0x96>
    3ddc:	3200      	movi      	r2, 0
    3dde:	3037      	movi      	r0, 55
    3de0:	1901      	addi      	r1, r14, 4
    3de2:	2a00      	subi      	r2, 1
    3de4:	5d6e      	addi      	r3, r5, 4
    3de6:	9580      	ld.w      	r4, (r5, 0x0)
    3de8:	6004      	addu      	r0, r1
    3dea:	3500      	movi      	r5, 0
    3dec:	649a      	cmpne      	r6, r2
    3dee:	b865      	st.w      	r3, (r14, 0x14)
    3df0:	a0a0      	st.b      	r5, (r0, 0x0)
    3df2:	090b      	bt      	0x4008	// 4008 <__v2_printf+0x498>
    3df4:	6cd3      	mov      	r3, r4
    3df6:	83c0      	ld.b      	r6, (r3, 0x0)
    3df8:	3e40      	cmpnei      	r6, 0
    3dfa:	0910      	bt      	0x401a	// 401a <__v2_printf+0x4aa>
    3dfc:	5bd1      	subu      	r6, r3, r4
    3dfe:	047f      	br      	0x3efc	// 3efc <__v2_printf+0x38c>
    3e00:	3840      	cmpnei      	r0, 0
    3e02:	0c05      	bf      	0x3e0c	// 3e0c <__v2_printf+0x29c>
    3e04:	3037      	movi      	r0, 55
    3e06:	1b01      	addi      	r3, r14, 4
    3e08:	600c      	addu      	r0, r3
    3e0a:	a020      	st.b      	r1, (r0, 0x0)
    3e0c:	0228      	lrw      	r1, 0x9319	// 40e8 <__v2_printf+0x578>
    3e0e:	3020      	movi      	r0, 32
    3e10:	681c      	and      	r0, r7
    3e12:	3840      	cmpnei      	r0, 0
    3e14:	b82a      	st.w      	r1, (r14, 0x28)
    3e16:	0d2b      	bf      	0x406c	// 406c <__v2_printf+0x4fc>
    3e18:	5d5e      	addi      	r2, r5, 8
    3e1a:	b845      	st.w      	r2, (r14, 0x14)
    3e1c:	9520      	ld.w      	r1, (r5, 0x0)
    3e1e:	9541      	ld.w      	r2, (r5, 0x4)
    3e20:	b823      	st.w      	r1, (r14, 0xc)
    3e22:	b844      	st.w      	r2, (r14, 0x10)
    3e24:	3001      	movi      	r0, 1
    3e26:	681c      	and      	r0, r7
    3e28:	3840      	cmpnei      	r0, 0
    3e2a:	0fce      	bf      	0x3dc6	// 3dc6 <__v2_printf+0x256>
    3e2c:	98a3      	ld.w      	r5, (r14, 0xc)
    3e2e:	9864      	ld.w      	r3, (r14, 0x10)
    3e30:	6d4c      	or      	r5, r3
    3e32:	3d40      	cmpnei      	r5, 0
    3e34:	0fc9      	bf      	0x3dc6	// 3dc6 <__v2_printf+0x256>
    3e36:	3039      	movi      	r0, 57
    3e38:	1d01      	addi      	r5, r14, 4
    3e3a:	3130      	movi      	r1, 48
    3e3c:	1a0f      	addi      	r2, r14, 60
    3e3e:	6014      	addu      	r0, r5
    3e40:	a220      	st.b      	r1, (r2, 0x0)
    3e42:	a080      	st.b      	r4, (r0, 0x0)
    3e44:	3fa1      	bseti      	r7, 1
    3e46:	07c0      	br      	0x3dc6	// 3dc6 <__v2_printf+0x256>
    3e48:	3940      	cmpnei      	r1, 0
    3e4a:	0aef      	bt      	0x3c28	// 3c28 <__v2_printf+0xb8>
    3e4c:	3001      	movi      	r0, 1
    3e4e:	3120      	movi      	r1, 32
    3e50:	06ec      	br      	0x3c28	// 3c28 <__v2_printf+0xb8>
    3e52:	3fa0      	bseti      	r7, 0
    3e54:	06ea      	br      	0x3c28	// 3c28 <__v2_printf+0xb8>
    3e56:	9580      	ld.w      	r4, (r5, 0x0)
    3e58:	3cdf      	btsti      	r4, 31
    3e5a:	5d6e      	addi      	r3, r5, 4
    3e5c:	b887      	st.w      	r4, (r14, 0x1c)
    3e5e:	0ee7      	bf      	0x3c2c	// 3c2c <__v2_printf+0xbc>
    3e60:	9847      	ld.w      	r2, (r14, 0x1c)
    3e62:	3500      	movi      	r5, 0
    3e64:	614a      	subu      	r5, r2
    3e66:	b8a7      	st.w      	r5, (r14, 0x1c)
    3e68:	6d4f      	mov      	r5, r3
    3e6a:	06e9      	br      	0x3c3c	// 3c3c <__v2_printf+0xcc>
    3e6c:	98c6      	ld.w      	r6, (r14, 0x18)
    3e6e:	8680      	ld.b      	r4, (r6, 0x0)
    3e70:	322a      	movi      	r2, 42
    3e72:	9866      	ld.w      	r3, (r14, 0x18)
    3e74:	6492      	cmpne      	r4, r2
    3e76:	2300      	addi      	r3, 1
    3e78:	0c0b      	bf      	0x3e8e	// 3e8e <__v2_printf+0x31e>
    3e7a:	b865      	st.w      	r3, (r14, 0x14)
    3e7c:	3600      	movi      	r6, 0
    3e7e:	3300      	movi      	r3, 0
    3e80:	2b2f      	subi      	r3, 48
    3e82:	60d0      	addu      	r3, r4
    3e84:	3b09      	cmphsi      	r3, 10
    3e86:	9845      	ld.w      	r2, (r14, 0x14)
    3e88:	0c0c      	bf      	0x3ea0	// 3ea0 <__v2_printf+0x330>
    3e8a:	b846      	st.w      	r2, (r14, 0x18)
    3e8c:	06a8      	br      	0x3bdc	// 3bdc <__v2_printf+0x6c>
    3e8e:	95c0      	ld.w      	r6, (r5, 0x0)
    3e90:	3edf      	btsti      	r6, 31
    3e92:	5d8e      	addi      	r4, r5, 4
    3e94:	0c03      	bf      	0x3e9a	// 3e9a <__v2_printf+0x32a>
    3e96:	3600      	movi      	r6, 0
    3e98:	2e00      	subi      	r6, 1
    3e9a:	6d53      	mov      	r5, r4
    3e9c:	b866      	st.w      	r3, (r14, 0x18)
    3e9e:	06c5      	br      	0x3c28	// 3c28 <__v2_printf+0xb8>
    3ea0:	340a      	movi      	r4, 10
    3ea2:	7d18      	mult      	r4, r6
    3ea4:	9845      	ld.w      	r2, (r14, 0x14)
    3ea6:	6d8f      	mov      	r6, r3
    3ea8:	6190      	addu      	r6, r4
    3eaa:	8280      	ld.b      	r4, (r2, 0x0)
    3eac:	2200      	addi      	r2, 1
    3eae:	b845      	st.w      	r2, (r14, 0x14)
    3eb0:	07e7      	br      	0x3e7e	// 3e7e <__v2_printf+0x30e>
    3eb2:	3200      	movi      	r2, 0
    3eb4:	b847      	st.w      	r2, (r14, 0x1c)
    3eb6:	9867      	ld.w      	r3, (r14, 0x1c)
    3eb8:	320a      	movi      	r2, 10
    3eba:	7cc8      	mult      	r3, r2
    3ebc:	2c2f      	subi      	r4, 48
    3ebe:	610c      	addu      	r4, r3
    3ec0:	b887      	st.w      	r4, (r14, 0x1c)
    3ec2:	3300      	movi      	r3, 0
    3ec4:	9886      	ld.w      	r4, (r14, 0x18)
    3ec6:	5c42      	addi      	r2, r4, 1
    3ec8:	2b2f      	subi      	r3, 48
    3eca:	8480      	ld.b      	r4, (r4, 0x0)
    3ecc:	60d0      	addu      	r3, r4
    3ece:	3b09      	cmphsi      	r3, 10
    3ed0:	b846      	st.w      	r2, (r14, 0x18)
    3ed2:	0ff2      	bf      	0x3eb6	// 3eb6 <__v2_printf+0x346>
    3ed4:	07db      	br      	0x3e8a	// 3e8a <__v2_printf+0x31a>
    3ed6:	3fa6      	bseti      	r7, 6
    3ed8:	06a8      	br      	0x3c28	// 3c28 <__v2_printf+0xb8>
    3eda:	3fa4      	bseti      	r7, 4
    3edc:	06a6      	br      	0x3c28	// 3c28 <__v2_printf+0xb8>
    3ede:	3840      	cmpnei      	r0, 0
    3ee0:	0c05      	bf      	0x3eea	// 3eea <__v2_printf+0x37a>
    3ee2:	3637      	movi      	r6, 55
    3ee4:	1b01      	addi      	r3, r14, 4
    3ee6:	618c      	addu      	r6, r3
    3ee8:	a620      	st.b      	r1, (r6, 0x0)
    3eea:	033e      	lrw      	r1, 0x2000036c	// 40ec <__v2_printf+0x57c>
    3eec:	9100      	ld.w      	r0, (r1, 0x0)
    3eee:	e00003fd 	bsr      	0x46e8	// 46e8 <__GI_strerror>
    3ef2:	6d03      	mov      	r4, r0
    3ef4:	e3fffdae 	bsr      	0x3a50	// 3a50 <__strlen_fast>
    3ef8:	6d83      	mov      	r6, r0
    3efa:	b8a5      	st.w      	r5, (r14, 0x14)
    3efc:	3500      	movi      	r5, 0
    3efe:	0554      	br      	0x41a6	// 41a6 <__v2_printf+0x636>
    3f00:	3840      	cmpnei      	r0, 0
    3f02:	0c05      	bf      	0x3f0c	// 3f0c <__v2_printf+0x39c>
    3f04:	3037      	movi      	r0, 55
    3f06:	1a01      	addi      	r2, r14, 4
    3f08:	6008      	addu      	r0, r2
    3f0a:	a020      	st.b      	r1, (r0, 0x0)
    3f0c:	3420      	movi      	r4, 32
    3f0e:	691c      	and      	r4, r7
    3f10:	3c40      	cmpnei      	r4, 0
    3f12:	0c1a      	bf      	0x3f46	// 3f46 <__v2_printf+0x3d6>
    3f14:	5d7e      	addi      	r3, r5, 8
    3f16:	9520      	ld.w      	r1, (r5, 0x0)
    3f18:	9541      	ld.w      	r2, (r5, 0x4)
    3f1a:	b865      	st.w      	r3, (r14, 0x14)
    3f1c:	b823      	st.w      	r1, (r14, 0xc)
    3f1e:	b844      	st.w      	r2, (r14, 0x10)
    3f20:	9804      	ld.w      	r0, (r14, 0x10)
    3f22:	38df      	btsti      	r0, 31
    3f24:	0c0f      	bf      	0x3f42	// 3f42 <__v2_printf+0x3d2>
    3f26:	9883      	ld.w      	r4, (r14, 0xc)
    3f28:	98a4      	ld.w      	r5, (r14, 0x10)
    3f2a:	3200      	movi      	r2, 0
    3f2c:	3300      	movi      	r3, 0
    3f2e:	6488      	cmphs      	r2, r2
    3f30:	6093      	subc      	r2, r4
    3f32:	60d7      	subc      	r3, r5
    3f34:	b843      	st.w      	r2, (r14, 0xc)
    3f36:	b864      	st.w      	r3, (r14, 0x10)
    3f38:	3237      	movi      	r2, 55
    3f3a:	1b01      	addi      	r3, r14, 4
    3f3c:	352d      	movi      	r5, 45
    3f3e:	608c      	addu      	r2, r3
    3f40:	a2a0      	st.b      	r5, (r2, 0x0)
    3f42:	3401      	movi      	r4, 1
    3f44:	0438      	br      	0x3fb4	// 3fb4 <__v2_printf+0x444>
    3f46:	3310      	movi      	r3, 16
    3f48:	68dc      	and      	r3, r7
    3f4a:	3b40      	cmpnei      	r3, 0
    3f4c:	0c08      	bf      	0x3f5c	// 3f5c <__v2_printf+0x3ec>
    3f4e:	5d4e      	addi      	r2, r5, 4
    3f50:	b845      	st.w      	r2, (r14, 0x14)
    3f52:	95a0      	ld.w      	r5, (r5, 0x0)
    3f54:	559f      	asri      	r4, r5, 31
    3f56:	b8a3      	st.w      	r5, (r14, 0xc)
    3f58:	b884      	st.w      	r4, (r14, 0x10)
    3f5a:	07e3      	br      	0x3f20	// 3f20 <__v2_printf+0x3b0>
    3f5c:	3140      	movi      	r1, 64
    3f5e:	685c      	and      	r1, r7
    3f60:	5d0e      	addi      	r0, r5, 4
    3f62:	3940      	cmpnei      	r1, 0
    3f64:	95a0      	ld.w      	r5, (r5, 0x0)
    3f66:	b805      	st.w      	r0, (r14, 0x14)
    3f68:	0ff6      	bf      	0x3f54	// 3f54 <__v2_printf+0x3e4>
    3f6a:	7557      	sexth      	r5, r5
    3f6c:	07f4      	br      	0x3f54	// 3f54 <__v2_printf+0x3e4>
    3f6e:	3506      	movi      	r5, 6
    3f70:	06a9      	br      	0x3cc2	// 3cc2 <__v2_printf+0x152>
    3f72:	6d83      	mov      	r6, r0
    3f74:	06ca      	br      	0x3d08	// 3d08 <__v2_printf+0x198>
    3f76:	3201      	movi      	r2, 1
    3f78:	689c      	and      	r2, r7
    3f7a:	3a40      	cmpnei      	r2, 0
    3f7c:	0ec8      	bf      	0x3d0c	// 3d0c <__v2_printf+0x19c>
    3f7e:	1d12      	addi      	r5, r14, 72
    3f80:	6158      	addu      	r5, r6
    3f82:	332e      	movi      	r3, 46
    3f84:	3000      	movi      	r0, 0
    3f86:	a560      	st.b      	r3, (r5, 0x0)
    3f88:	a501      	st.b      	r0, (r5, 0x1)
    3f8a:	06c1      	br      	0x3d0c	// 3d0c <__v2_printf+0x19c>
    3f8c:	2400      	addi      	r4, 1
    3f8e:	06cd      	br      	0x3d28	// 3d28 <__v2_printf+0x1b8>
    3f90:	6d0f      	mov      	r4, r3
    3f92:	06d2      	br      	0x3d36	// 3d36 <__v2_printf+0x1c6>
    3f94:	3320      	movi      	r3, 32
    3f96:	68dc      	and      	r3, r7
    3f98:	3b40      	cmpnei      	r3, 0
    3f9a:	0c24      	bf      	0x3fe2	// 3fe2 <__v2_printf+0x472>
    3f9c:	5d7e      	addi      	r3, r5, 8
    3f9e:	9500      	ld.w      	r0, (r5, 0x0)
    3fa0:	9521      	ld.w      	r1, (r5, 0x4)
    3fa2:	b865      	st.w      	r3, (r14, 0x14)
    3fa4:	b803      	st.w      	r0, (r14, 0xc)
    3fa6:	b824      	st.w      	r1, (r14, 0x10)
    3fa8:	3400      	movi      	r4, 0
    3faa:	3537      	movi      	r5, 55
    3fac:	1801      	addi      	r0, r14, 4
    3fae:	3200      	movi      	r2, 0
    3fb0:	6140      	addu      	r5, r0
    3fb2:	a540      	st.b      	r2, (r5, 0x0)
    3fb4:	3100      	movi      	r1, 0
    3fb6:	2900      	subi      	r1, 1
    3fb8:	9803      	ld.w      	r0, (r14, 0xc)
    3fba:	98a4      	ld.w      	r5, (r14, 0x10)
    3fbc:	645a      	cmpne      	r6, r1
    3fbe:	6c14      	or      	r0, r5
    3fc0:	0cc8      	bf      	0x4150	// 4150 <__v2_printf+0x5e0>
    3fc2:	6c9f      	mov      	r2, r7
    3fc4:	3a87      	bclri      	r2, 7
    3fc6:	3840      	cmpnei      	r0, 0
    3fc8:	b848      	st.w      	r2, (r14, 0x20)
    3fca:	08c6      	bt      	0x4156	// 4156 <__v2_printf+0x5e6>
    3fcc:	3e40      	cmpnei      	r6, 0
    3fce:	0cac      	bf      	0x4126	// 4126 <__v2_printf+0x5b6>
    3fd0:	3c41      	cmpnei      	r4, 1
    3fd2:	0c68      	bf      	0x40a2	// 40a2 <__v2_printf+0x532>
    3fd4:	3c42      	cmpnei      	r4, 2
    3fd6:	0c8d      	bf      	0x40f0	// 40f0 <__v2_printf+0x580>
    3fd8:	3300      	movi      	r3, 0
    3fda:	3400      	movi      	r4, 0
    3fdc:	b863      	st.w      	r3, (r14, 0xc)
    3fde:	b884      	st.w      	r4, (r14, 0x10)
    3fe0:	04bf      	br      	0x415e	// 415e <__v2_printf+0x5ee>
    3fe2:	3010      	movi      	r0, 16
    3fe4:	681c      	and      	r0, r7
    3fe6:	3840      	cmpnei      	r0, 0
    3fe8:	0c05      	bf      	0x3ff2	// 3ff2 <__v2_printf+0x482>
    3fea:	5d8e      	addi      	r4, r5, 4
    3fec:	b885      	st.w      	r4, (r14, 0x14)
    3fee:	95a0      	ld.w      	r5, (r5, 0x0)
    3ff0:	0408      	br      	0x4000	// 4000 <__v2_printf+0x490>
    3ff2:	3240      	movi      	r2, 64
    3ff4:	689c      	and      	r2, r7
    3ff6:	5d2e      	addi      	r1, r5, 4
    3ff8:	3a40      	cmpnei      	r2, 0
    3ffa:	b825      	st.w      	r1, (r14, 0x14)
    3ffc:	0ff9      	bf      	0x3fee	// 3fee <__v2_printf+0x47e>
    3ffe:	8da0      	ld.h      	r5, (r5, 0x0)
    4000:	3400      	movi      	r4, 0
    4002:	b8a3      	st.w      	r5, (r14, 0xc)
    4004:	b884      	st.w      	r4, (r14, 0x10)
    4006:	07d2      	br      	0x3faa	// 3faa <__v2_printf+0x43a>
    4008:	5cb8      	addu      	r5, r4, r6
    400a:	6cd3      	mov      	r3, r4
    400c:	654e      	cmpne      	r3, r5
    400e:	0f77      	bf      	0x3efc	// 3efc <__v2_printf+0x38c>
    4010:	8300      	ld.b      	r0, (r3, 0x0)
    4012:	3840      	cmpnei      	r0, 0
    4014:	0ef4      	bf      	0x3dfc	// 3dfc <__v2_printf+0x28c>
    4016:	2300      	addi      	r3, 1
    4018:	07fa      	br      	0x400c	// 400c <__v2_printf+0x49c>
    401a:	2300      	addi      	r3, 1
    401c:	06ed      	br      	0x3df6	// 3df6 <__v2_printf+0x286>
    401e:	3420      	movi      	r4, 32
    4020:	691c      	and      	r4, r7
    4022:	3c40      	cmpnei      	r4, 0
    4024:	0c09      	bf      	0x4036	// 4036 <__v2_printf+0x4c6>
    4026:	5d7e      	addi      	r3, r5, 8
    4028:	9520      	ld.w      	r1, (r5, 0x0)
    402a:	9541      	ld.w      	r2, (r5, 0x4)
    402c:	b865      	st.w      	r3, (r14, 0x14)
    402e:	b823      	st.w      	r1, (r14, 0xc)
    4030:	b844      	st.w      	r2, (r14, 0x10)
    4032:	3401      	movi      	r4, 1
    4034:	07bb      	br      	0x3faa	// 3faa <__v2_printf+0x43a>
    4036:	3310      	movi      	r3, 16
    4038:	68dc      	and      	r3, r7
    403a:	3b40      	cmpnei      	r3, 0
    403c:	0c05      	bf      	0x4046	// 4046 <__v2_printf+0x4d6>
    403e:	5d0e      	addi      	r0, r5, 4
    4040:	b805      	st.w      	r0, (r14, 0x14)
    4042:	95a0      	ld.w      	r5, (r5, 0x0)
    4044:	0408      	br      	0x4054	// 4054 <__v2_printf+0x4e4>
    4046:	3140      	movi      	r1, 64
    4048:	685c      	and      	r1, r7
    404a:	5d4e      	addi      	r2, r5, 4
    404c:	3940      	cmpnei      	r1, 0
    404e:	b845      	st.w      	r2, (r14, 0x14)
    4050:	0ff9      	bf      	0x4042	// 4042 <__v2_printf+0x4d2>
    4052:	8da0      	ld.h      	r5, (r5, 0x0)
    4054:	3400      	movi      	r4, 0
    4056:	b8a3      	st.w      	r5, (r14, 0xc)
    4058:	b884      	st.w      	r4, (r14, 0x10)
    405a:	07ec      	br      	0x4032	// 4032 <__v2_printf+0x4c2>
    405c:	3840      	cmpnei      	r0, 0
    405e:	0c05      	bf      	0x4068	// 4068 <__v2_printf+0x4f8>
    4060:	3337      	movi      	r3, 55
    4062:	1a01      	addi      	r2, r14, 4
    4064:	60c8      	addu      	r3, r2
    4066:	a320      	st.b      	r1, (r3, 0x0)
    4068:	103f      	lrw      	r1, 0x932a	// 40e4 <__v2_printf+0x574>
    406a:	06d2      	br      	0x3e0e	// 3e0e <__v2_printf+0x29e>
    406c:	3310      	movi      	r3, 16
    406e:	68dc      	and      	r3, r7
    4070:	3b40      	cmpnei      	r3, 0
    4072:	0c05      	bf      	0x407c	// 407c <__v2_printf+0x50c>
    4074:	5d0e      	addi      	r0, r5, 4
    4076:	b805      	st.w      	r0, (r14, 0x14)
    4078:	95a0      	ld.w      	r5, (r5, 0x0)
    407a:	0408      	br      	0x408a	// 408a <__v2_printf+0x51a>
    407c:	3240      	movi      	r2, 64
    407e:	689c      	and      	r2, r7
    4080:	5d2e      	addi      	r1, r5, 4
    4082:	3a40      	cmpnei      	r2, 0
    4084:	b825      	st.w      	r1, (r14, 0x14)
    4086:	0ff9      	bf      	0x4078	// 4078 <__v2_printf+0x508>
    4088:	8da0      	ld.h      	r5, (r5, 0x0)
    408a:	3300      	movi      	r3, 0
    408c:	b8a3      	st.w      	r5, (r14, 0xc)
    408e:	b864      	st.w      	r3, (r14, 0x10)
    4090:	06ca      	br      	0x3e24	// 3e24 <__v2_printf+0x2b4>
    4092:	6cd3      	mov      	r3, r4
    4094:	0467      	br      	0x4162	// 4162 <__v2_printf+0x5f2>
    4096:	9884      	ld.w      	r4, (r14, 0x10)
    4098:	3c40      	cmpnei      	r4, 0
    409a:	080b      	bt      	0x40b0	// 40b0 <__v2_printf+0x540>
    409c:	9843      	ld.w      	r2, (r14, 0xc)
    409e:	3a09      	cmphsi      	r2, 10
    40a0:	0808      	bt      	0x40b0	// 40b0 <__v2_printf+0x540>
    40a2:	9883      	ld.w      	r4, (r14, 0xc)
    40a4:	242f      	addi      	r4, 48
    40a6:	1f1a      	addi      	r7, r14, 104
    40a8:	a787      	st.b      	r4, (r7, 0x7)
    40aa:	1c12      	addi      	r4, r14, 72
    40ac:	2426      	addi      	r4, 39
    40ae:	0478      	br      	0x419e	// 419e <__v2_printf+0x62e>
    40b0:	1c1c      	addi      	r4, r14, 112
    40b2:	3530      	movi      	r5, 48
    40b4:	320a      	movi      	r2, 10
    40b6:	3300      	movi      	r3, 0
    40b8:	9803      	ld.w      	r0, (r14, 0xc)
    40ba:	9824      	ld.w      	r1, (r14, 0x10)
    40bc:	e3fff2a6 	bsr      	0x2608	// 2608 <__umoddi3>
    40c0:	6014      	addu      	r0, r5
    40c2:	2c00      	subi      	r4, 1
    40c4:	a400      	st.b      	r0, (r4, 0x0)
    40c6:	320a      	movi      	r2, 10
    40c8:	9803      	ld.w      	r0, (r14, 0xc)
    40ca:	9824      	ld.w      	r1, (r14, 0x10)
    40cc:	3300      	movi      	r3, 0
    40ce:	e3fff0c7 	bsr      	0x225c	// 225c <__udivdi3>
    40d2:	b803      	st.w      	r0, (r14, 0xc)
    40d4:	b824      	st.w      	r1, (r14, 0x10)
    40d6:	9823      	ld.w      	r1, (r14, 0xc)
    40d8:	98e4      	ld.w      	r7, (r14, 0x10)
    40da:	6c5c      	or      	r1, r7
    40dc:	3940      	cmpnei      	r1, 0
    40de:	0beb      	bt      	0x40b4	// 40b4 <__v2_printf+0x544>
    40e0:	045f      	br      	0x419e	// 419e <__v2_printf+0x62e>
    40e2:	0000      	bkpt
    40e4:	0000932a 	.long	0x0000932a
    40e8:	00009319 	.long	0x00009319
    40ec:	2000036c 	.long	0x2000036c
    40f0:	3300      	movi      	r3, 0
    40f2:	3400      	movi      	r4, 0
    40f4:	b863      	st.w      	r3, (r14, 0xc)
    40f6:	b884      	st.w      	r4, (r14, 0x10)
    40f8:	1c1c      	addi      	r4, r14, 112
    40fa:	320f      	movi      	r2, 15
    40fc:	9803      	ld.w      	r0, (r14, 0xc)
    40fe:	982a      	ld.w      	r1, (r14, 0x28)
    4100:	6808      	and      	r0, r2
    4102:	6004      	addu      	r0, r1
    4104:	80a0      	ld.b      	r5, (r0, 0x0)
    4106:	2c00      	subi      	r4, 1
    4108:	98e4      	ld.w      	r7, (r14, 0x10)
    410a:	a4a0      	st.b      	r5, (r4, 0x0)
    410c:	98a4      	ld.w      	r5, (r14, 0x10)
    410e:	9863      	ld.w      	r3, (r14, 0xc)
    4110:	471c      	lsli      	r0, r7, 28
    4112:	4de4      	lsri      	r7, r5, 4
    4114:	4b24      	lsri      	r1, r3, 4
    4116:	b8e4      	st.w      	r7, (r14, 0x10)
    4118:	6c04      	or      	r0, r1
    411a:	9864      	ld.w      	r3, (r14, 0x10)
    411c:	b803      	st.w      	r0, (r14, 0xc)
    411e:	6c0c      	or      	r0, r3
    4120:	3840      	cmpnei      	r0, 0
    4122:	0bed      	bt      	0x40fc	// 40fc <__v2_printf+0x58c>
    4124:	043d      	br      	0x419e	// 419e <__v2_printf+0x62e>
    4126:	3c40      	cmpnei      	r4, 0
    4128:	0808      	bt      	0x4138	// 4138 <__v2_printf+0x5c8>
    412a:	3301      	movi      	r3, 1
    412c:	68dc      	and      	r3, r7
    412e:	3b40      	cmpnei      	r3, 0
    4130:	0c04      	bf      	0x4138	// 4138 <__v2_printf+0x5c8>
    4132:	1f1a      	addi      	r7, r14, 104
    4134:	3430      	movi      	r4, 48
    4136:	07b9      	br      	0x40a8	// 40a8 <__v2_printf+0x538>
    4138:	1c1c      	addi      	r4, r14, 112
    413a:	0432      	br      	0x419e	// 419e <__v2_printf+0x62e>
    413c:	322b      	movi      	r2, 43
    413e:	649a      	cmpne      	r6, r2
    4140:	0802      	bt      	0x4144	// 4144 <__v2_printf+0x5d4>
    4142:	0614      	br      	0x3d6a	// 3d6a <__v2_printf+0x1fa>
    4144:	1c12      	addi      	r4, r14, 72
    4146:	6c13      	mov      	r0, r4
    4148:	e3fffc84 	bsr      	0x3a50	// 3a50 <__strlen_fast>
    414c:	6d83      	mov      	r6, r0
    414e:	06d7      	br      	0x3efc	// 3efc <__v2_printf+0x38c>
    4150:	3840      	cmpnei      	r0, 0
    4152:	b8e8      	st.w      	r7, (r14, 0x20)
    4154:	0f3e      	bf      	0x3fd0	// 3fd0 <__v2_printf+0x460>
    4156:	3c41      	cmpnei      	r4, 1
    4158:	0f9f      	bf      	0x4096	// 4096 <__v2_printf+0x526>
    415a:	3c42      	cmpnei      	r4, 2
    415c:	0fce      	bf      	0x40f8	// 40f8 <__v2_printf+0x588>
    415e:	1b1c      	addi      	r3, r14, 112
    4160:	3707      	movi      	r7, 7
    4162:	9823      	ld.w      	r1, (r14, 0xc)
    4164:	685c      	and      	r1, r7
    4166:	212f      	addi      	r1, 48
    4168:	9804      	ld.w      	r0, (r14, 0x10)
    416a:	7484      	zextb      	r2, r1
    416c:	9823      	ld.w      	r1, (r14, 0xc)
    416e:	40bd      	lsli      	r5, r0, 29
    4170:	4903      	lsri      	r0, r1, 3
    4172:	9824      	ld.w      	r1, (r14, 0x10)
    4174:	4923      	lsri      	r1, r1, 3
    4176:	b824      	st.w      	r1, (r14, 0x10)
    4178:	6d40      	or      	r5, r0
    417a:	9804      	ld.w      	r0, (r14, 0x10)
    417c:	b8a3      	st.w      	r5, (r14, 0xc)
    417e:	6d40      	or      	r5, r0
    4180:	5b83      	subi      	r4, r3, 1
    4182:	3d40      	cmpnei      	r5, 0
    4184:	a440      	st.b      	r2, (r4, 0x0)
    4186:	0b86      	bt      	0x4092	// 4092 <__v2_printf+0x522>
    4188:	3701      	movi      	r7, 1
    418a:	9828      	ld.w      	r1, (r14, 0x20)
    418c:	69c4      	and      	r7, r1
    418e:	3f40      	cmpnei      	r7, 0
    4190:	0c07      	bf      	0x419e	// 419e <__v2_printf+0x62e>
    4192:	3530      	movi      	r5, 48
    4194:	654a      	cmpne      	r2, r5
    4196:	0c04      	bf      	0x419e	// 419e <__v2_printf+0x62e>
    4198:	5b87      	subi      	r4, r3, 2
    419a:	3330      	movi      	r3, 48
    419c:	a460      	st.b      	r3, (r4, 0x0)
    419e:	6d5b      	mov      	r5, r6
    41a0:	1e1c      	addi      	r6, r14, 112
    41a2:	6192      	subu      	r6, r4
    41a4:	98e8      	ld.w      	r7, (r14, 0x20)
    41a6:	6595      	cmplt      	r5, r6
    41a8:	b8a8      	st.w      	r5, (r14, 0x20)
    41aa:	0c02      	bf      	0x41ae	// 41ae <__v2_printf+0x63e>
    41ac:	b8c8      	st.w      	r6, (r14, 0x20)
    41ae:	3037      	movi      	r0, 55
    41b0:	1b01      	addi      	r3, r14, 4
    41b2:	600c      	addu      	r0, r3
    41b4:	8040      	ld.b      	r2, (r0, 0x0)
    41b6:	3a40      	cmpnei      	r2, 0
    41b8:	0c04      	bf      	0x41c0	// 41c0 <__v2_printf+0x650>
    41ba:	9828      	ld.w      	r1, (r14, 0x20)
    41bc:	2100      	addi      	r1, 1
    41be:	b828      	st.w      	r1, (r14, 0x20)
    41c0:	3002      	movi      	r0, 2
    41c2:	681c      	and      	r0, r7
    41c4:	3840      	cmpnei      	r0, 0
    41c6:	b80b      	st.w      	r0, (r14, 0x2c)
    41c8:	0c04      	bf      	0x41d0	// 41d0 <__v2_printf+0x660>
    41ca:	9868      	ld.w      	r3, (r14, 0x20)
    41cc:	2301      	addi      	r3, 2
    41ce:	b868      	st.w      	r3, (r14, 0x20)
    41d0:	3284      	movi      	r2, 132
    41d2:	689c      	and      	r2, r7
    41d4:	3a40      	cmpnei      	r2, 0
    41d6:	b84c      	st.w      	r2, (r14, 0x30)
    41d8:	080b      	bt      	0x41ee	// 41ee <__v2_printf+0x67e>
    41da:	3310      	movi      	r3, 16
    41dc:	1a0c      	addi      	r2, r14, 48
    41de:	9827      	ld.w      	r1, (r14, 0x1c)
    41e0:	9808      	ld.w      	r0, (r14, 0x20)
    41e2:	60c8      	addu      	r3, r2
    41e4:	5901      	subu      	r0, r1, r0
    41e6:	6f4f      	mov      	r13, r3
    41e8:	1129      	lrw      	r1, 0x8e18	// 428c <__v2_printf+0x71c>
    41ea:	e3fffca9 	bsr      	0x3b3c	// 3b3c <PAD.1851>
    41ee:	3137      	movi      	r1, 55
    41f0:	1801      	addi      	r0, r14, 4
    41f2:	6040      	addu      	r1, r0
    41f4:	8160      	ld.b      	r3, (r1, 0x0)
    41f6:	3b40      	cmpnei      	r3, 0
    41f8:	0c0b      	bf      	0x420e	// 420e <__v2_printf+0x69e>
    41fa:	9830      	ld.w      	r1, (r14, 0x40)
    41fc:	9101      	ld.w      	r0, (r1, 0x4)
    41fe:	b802      	st.w      	r0, (r14, 0x8)
    4200:	1b0c      	addi      	r3, r14, 48
    4202:	300b      	movi      	r0, 11
    4204:	9140      	ld.w      	r2, (r1, 0x0)
    4206:	600c      	addu      	r0, r3
    4208:	3101      	movi      	r1, 1
    420a:	9862      	ld.w      	r3, (r14, 0x8)
    420c:	7bcd      	jsr      	r3
    420e:	984b      	ld.w      	r2, (r14, 0x2c)
    4210:	3a40      	cmpnei      	r2, 0
    4212:	0c07      	bf      	0x4220	// 4220 <__v2_printf+0x6b0>
    4214:	9830      	ld.w      	r1, (r14, 0x40)
    4216:	9140      	ld.w      	r2, (r1, 0x0)
    4218:	9161      	ld.w      	r3, (r1, 0x4)
    421a:	180f      	addi      	r0, r14, 60
    421c:	3102      	movi      	r1, 2
    421e:	7bcd      	jsr      	r3
    4220:	3080      	movi      	r0, 128
    4222:	984c      	ld.w      	r2, (r14, 0x30)
    4224:	640a      	cmpne      	r2, r0
    4226:	080b      	bt      	0x423c	// 423c <__v2_printf+0x6cc>
    4228:	9827      	ld.w      	r1, (r14, 0x1c)
    422a:	9868      	ld.w      	r3, (r14, 0x20)
    422c:	590d      	subu      	r0, r1, r3
    422e:	1a0c      	addi      	r2, r14, 48
    4230:	3110      	movi      	r1, 16
    4232:	6048      	addu      	r1, r2
    4234:	6f47      	mov      	r13, r1
    4236:	1037      	lrw      	r1, 0x8e28	// 4290 <__v2_printf+0x720>
    4238:	e3fffc82 	bsr      	0x3b3c	// 3b3c <PAD.1851>
    423c:	5d19      	subu      	r0, r5, r6
    423e:	1b0c      	addi      	r3, r14, 48
    4240:	3510      	movi      	r5, 16
    4242:	614c      	addu      	r5, r3
    4244:	6f57      	mov      	r13, r5
    4246:	6d77      	mov      	r5, r13
    4248:	1032      	lrw      	r1, 0x8e28	// 4290 <__v2_printf+0x720>
    424a:	e3fffc79 	bsr      	0x3b3c	// 3b3c <PAD.1851>
    424e:	9500      	ld.w      	r0, (r5, 0x0)
    4250:	9040      	ld.w      	r2, (r0, 0x0)
    4252:	9061      	ld.w      	r3, (r0, 0x4)
    4254:	6c13      	mov      	r0, r4
    4256:	3404      	movi      	r4, 4
    4258:	6c5b      	mov      	r1, r6
    425a:	691c      	and      	r4, r7
    425c:	7bcd      	jsr      	r3
    425e:	3c40      	cmpnei      	r4, 0
    4260:	0c08      	bf      	0x4270	// 4270 <__v2_printf+0x700>
    4262:	9828      	ld.w      	r1, (r14, 0x20)
    4264:	98c7      	ld.w      	r6, (r14, 0x1c)
    4266:	5e05      	subu      	r0, r6, r1
    4268:	6f57      	mov      	r13, r5
    426a:	1029      	lrw      	r1, 0x8e18	// 428c <__v2_printf+0x71c>
    426c:	e3fffc68 	bsr      	0x3b3c	// 3b3c <PAD.1851>
    4270:	98a7      	ld.w      	r5, (r14, 0x1c)
    4272:	9848      	ld.w      	r2, (r14, 0x20)
    4274:	6495      	cmplt      	r5, r2
    4276:	0c02      	bf      	0x427a	// 427a <__v2_printf+0x70a>
    4278:	6d4b      	mov      	r5, r2
    427a:	9809      	ld.w      	r0, (r14, 0x24)
    427c:	6014      	addu      	r0, r5
    427e:	b809      	st.w      	r0, (r14, 0x24)
    4280:	98a5      	ld.w      	r5, (r14, 0x14)
    4282:	e800fc84 	br      	0x3b8a	// 3b8a <__v2_printf+0x1a>
    4286:	9809      	ld.w      	r0, (r14, 0x24)
    4288:	141c      	addi      	r14, r14, 112
    428a:	1494      	pop      	r4-r7, r15
    428c:	00008e18 	.long	0x00008e18
    4290:	00008e28 	.long	0x00008e28

00004294 <copystring>:
    4294:	14c2      	push      	r4-r5
    4296:	3300      	movi      	r3, 0
    4298:	644d      	cmplt      	r3, r1
    429a:	0803      	bt      	0x42a0	// 42a0 <copystring+0xc>
    429c:	6c0f      	mov      	r0, r3
    429e:	1482      	pop      	r4-r5
    42a0:	5aac      	addu      	r5, r2, r3
    42a2:	588c      	addu      	r4, r0, r3
    42a4:	2300      	addi      	r3, 1
    42a6:	85a0      	ld.b      	r5, (r5, 0x0)
    42a8:	3b43      	cmpnei      	r3, 3
    42aa:	a4a0      	st.b      	r5, (r4, 0x0)
    42ac:	0bf6      	bt      	0x4298	// 4298 <copystring+0x4>
    42ae:	3923      	cmplti      	r1, 4
    42b0:	0bf6      	bt      	0x429c	// 429c <copystring+0x8>
    42b2:	3300      	movi      	r3, 0
    42b4:	a063      	st.b      	r3, (r0, 0x3)
    42b6:	3304      	movi      	r3, 4
    42b8:	07f2      	br      	0x429c	// 429c <copystring+0x8>

000042ba <__GI___dtostr>:
    42ba:	14d4      	push      	r4-r7, r15
    42bc:	142c      	subi      	r14, r14, 48
    42be:	6d8f      	mov      	r6, r3
    42c0:	9871      	ld.w      	r3, (r14, 0x44)
    42c2:	b80a      	st.w      	r0, (r14, 0x28)
    42c4:	b824      	st.w      	r1, (r14, 0x10)
    42c6:	b842      	st.w      	r2, (r14, 0x8)
    42c8:	b86b      	st.w      	r3, (r14, 0x2c)
    42ca:	98f2      	ld.w      	r7, (r14, 0x48)
    42cc:	e000021c 	bsr      	0x4704	// 4704 <__isinf>
    42d0:	3840      	cmpnei      	r0, 0
    42d2:	0c0a      	bf      	0x42e6	// 42e6 <__GI___dtostr+0x2c>
    42d4:	0244      	lrw      	r2, 0x933b	// 45c0 <__GI___dtostr+0x306>
    42d6:	6c5b      	mov      	r1, r6
    42d8:	9802      	ld.w      	r0, (r14, 0x8)
    42da:	e3ffffdd 	bsr      	0x4294	// 4294 <copystring>
    42de:	b809      	st.w      	r0, (r14, 0x24)
    42e0:	9809      	ld.w      	r0, (r14, 0x24)
    42e2:	140c      	addi      	r14, r14, 48
    42e4:	1494      	pop      	r4-r7, r15
    42e6:	980a      	ld.w      	r0, (r14, 0x28)
    42e8:	9824      	ld.w      	r1, (r14, 0x10)
    42ea:	e0000185 	bsr      	0x45f4	// 45f4 <__isnan>
    42ee:	3840      	cmpnei      	r0, 0
    42f0:	b809      	st.w      	r0, (r14, 0x24)
    42f2:	0c03      	bf      	0x42f8	// 42f8 <__GI___dtostr+0x3e>
    42f4:	024b      	lrw      	r2, 0x933f	// 45c4 <__GI___dtostr+0x30a>
    42f6:	07f0      	br      	0x42d6	// 42d6 <__GI___dtostr+0x1c>
    42f8:	3200      	movi      	r2, 0
    42fa:	3300      	movi      	r3, 0
    42fc:	980a      	ld.w      	r0, (r14, 0x28)
    42fe:	9824      	ld.w      	r1, (r14, 0x10)
    4300:	e000021a 	bsr      	0x4734	// 4734 <__eqdf2>
    4304:	3840      	cmpnei      	r0, 0
    4306:	082d      	bt      	0x4360	// 4360 <__GI___dtostr+0xa6>
    4308:	3f40      	cmpnei      	r7, 0
    430a:	0d57      	bf      	0x45b8	// 45b8 <__GI___dtostr+0x2fe>
    430c:	5fa6      	addi      	r5, r7, 2
    430e:	6558      	cmphs      	r6, r5
    4310:	0d56      	bf      	0x45bc	// 45bc <__GI___dtostr+0x302>
    4312:	3d40      	cmpnei      	r5, 0
    4314:	0c0b      	bf      	0x432a	// 432a <__GI___dtostr+0x70>
    4316:	9824      	ld.w      	r1, (r14, 0x10)
    4318:	39df      	btsti      	r1, 31
    431a:	0c1a      	bf      	0x434e	// 434e <__GI___dtostr+0x94>
    431c:	9802      	ld.w      	r0, (r14, 0x8)
    431e:	322d      	movi      	r2, 45
    4320:	a040      	st.b      	r2, (r0, 0x0)
    4322:	5d02      	addi      	r0, r5, 1
    4324:	3501      	movi      	r5, 1
    4326:	6414      	cmphs      	r5, r0
    4328:	0c16      	bf      	0x4354	// 4354 <__GI___dtostr+0x9a>
    432a:	9882      	ld.w      	r4, (r14, 0x8)
    432c:	8420      	ld.b      	r1, (r4, 0x0)
    432e:	3330      	movi      	r3, 48
    4330:	64c6      	cmpne      	r1, r3
    4332:	3000      	movi      	r0, 0
    4334:	6001      	addc      	r0, r0
    4336:	9842      	ld.w      	r2, (r14, 0x8)
    4338:	9822      	ld.w      	r1, (r14, 0x8)
    433a:	6008      	addu      	r0, r2
    433c:	342e      	movi      	r4, 46
    433e:	6054      	addu      	r1, r5
    4340:	3300      	movi      	r3, 0
    4342:	a081      	st.b      	r4, (r0, 0x1)
    4344:	b8a9      	st.w      	r5, (r14, 0x24)
    4346:	a160      	st.b      	r3, (r1, 0x0)
    4348:	07cc      	br      	0x42e0	// 42e0 <__GI___dtostr+0x26>
    434a:	3501      	movi      	r5, 1
    434c:	07e5      	br      	0x4316	// 4316 <__GI___dtostr+0x5c>
    434e:	6c17      	mov      	r0, r5
    4350:	3500      	movi      	r5, 0
    4352:	07ea      	br      	0x4326	// 4326 <__GI___dtostr+0x6c>
    4354:	9842      	ld.w      	r2, (r14, 0x8)
    4356:	6094      	addu      	r2, r5
    4358:	3430      	movi      	r4, 48
    435a:	a280      	st.b      	r4, (r2, 0x0)
    435c:	2500      	addi      	r5, 1
    435e:	07e4      	br      	0x4326	// 4326 <__GI___dtostr+0x6c>
    4360:	3200      	movi      	r2, 0
    4362:	3300      	movi      	r3, 0
    4364:	980a      	ld.w      	r0, (r14, 0x28)
    4366:	9824      	ld.w      	r1, (r14, 0x10)
    4368:	e0000222 	bsr      	0x47ac	// 47ac <__ltdf2>
    436c:	38df      	btsti      	r0, 31
    436e:	0c8e      	bf      	0x448a	// 448a <__GI___dtostr+0x1d0>
    4370:	3180      	movi      	r1, 128
    4372:	98a2      	ld.w      	r5, (r14, 0x8)
    4374:	9884      	ld.w      	r4, (r14, 0x10)
    4376:	4158      	lsli      	r2, r1, 24
    4378:	332d      	movi      	r3, 45
    437a:	a560      	st.b      	r3, (r5, 0x0)
    437c:	6108      	addu      	r4, r2
    437e:	2e00      	subi      	r6, 1
    4380:	2500      	addi      	r5, 1
    4382:	3000      	movi      	r0, 0
    4384:	032e      	lrw      	r1, 0x3fe00000	// 45c8 <__GI___dtostr+0x30e>
    4386:	3300      	movi      	r3, 0
    4388:	b865      	st.w      	r3, (r14, 0x14)
    438a:	9845      	ld.w      	r2, (r14, 0x14)
    438c:	65ca      	cmpne      	r2, r7
    438e:	0881      	bt      	0x4490	// 4490 <__GI___dtostr+0x1d6>
    4390:	6c83      	mov      	r2, r0
    4392:	6cc7      	mov      	r3, r1
    4394:	980a      	ld.w      	r0, (r14, 0x28)
    4396:	6c53      	mov      	r1, r4
    4398:	e3fff600 	bsr      	0x2f98	// 2f98 <__adddf3>
    439c:	3200      	movi      	r2, 0
    439e:	0373      	lrw      	r3, 0x3ff00000	// 45cc <__GI___dtostr+0x312>
    43a0:	b806      	st.w      	r0, (r14, 0x18)
    43a2:	b827      	st.w      	r1, (r14, 0x1c)
    43a4:	e0000204 	bsr      	0x47ac	// 47ac <__ltdf2>
    43a8:	38df      	btsti      	r0, 31
    43aa:	0c05      	bf      	0x43b4	// 43b4 <__GI___dtostr+0xfa>
    43ac:	3430      	movi      	r4, 48
    43ae:	a580      	st.b      	r4, (r5, 0x0)
    43b0:	2e00      	subi      	r6, 1
    43b2:	2500      	addi      	r5, 1
    43b4:	9804      	ld.w      	r0, (r14, 0x10)
    43b6:	4021      	lsli      	r1, r0, 1
    43b8:	0379      	lrw      	r3, 0xfffffc01	// 45d0 <__GI___dtostr+0x316>
    43ba:	4915      	lsri      	r0, r1, 21
    43bc:	600c      	addu      	r0, r3
    43be:	e0000215 	bsr      	0x47e8	// 47e8 <__floatsidf>
    43c2:	035a      	lrw      	r2, 0x509f79ff	// 45d4 <__GI___dtostr+0x31a>
    43c4:	037a      	lrw      	r3, 0x3fd34413	// 45d8 <__GI___dtostr+0x31e>
    43c6:	e3fff61d 	bsr      	0x3000	// 3000 <__muldf3>
    43ca:	e3fff7fd 	bsr      	0x33c4	// 33c4 <__fixdfsi>
    43ce:	5842      	addi      	r2, r0, 1
    43d0:	3a20      	cmplti      	r2, 1
    43d2:	b848      	st.w      	r2, (r14, 0x20)
    43d4:	08e7      	bt      	0x45a2	// 45a2 <__GI___dtostr+0x2e8>
    43d6:	033d      	lrw      	r1, 0x40240000	// 45dc <__GI___dtostr+0x322>
    43d8:	6dcb      	mov      	r7, r2
    43da:	3400      	movi      	r4, 0
    43dc:	b823      	st.w      	r1, (r14, 0xc)
    43de:	3f0a      	cmphsi      	r7, 11
    43e0:	085f      	bt      	0x449e	// 449e <__GI___dtostr+0x1e4>
    43e2:	3f41      	cmpnei      	r7, 1
    43e4:	0868      	bt      	0x44b4	// 44b4 <__GI___dtostr+0x1fa>
    43e6:	135f      	lrw      	r2, 0xcccccccd	// 45e0 <__GI___dtostr+0x326>
    43e8:	137f      	lrw      	r3, 0x3feccccc	// 45e4 <__GI___dtostr+0x32a>
    43ea:	6c13      	mov      	r0, r4
    43ec:	9823      	ld.w      	r1, (r14, 0xc)
    43ee:	e00001c1 	bsr      	0x4770	// 4770 <__gtdf2>
    43f2:	3820      	cmplti      	r0, 1
    43f4:	0c6a      	bf      	0x44c8	// 44c8 <__GI___dtostr+0x20e>
    43f6:	9862      	ld.w      	r3, (r14, 0x8)
    43f8:	64d6      	cmpne      	r5, r3
    43fa:	0807      	bt      	0x4408	// 4408 <__GI___dtostr+0x14e>
    43fc:	3e40      	cmpnei      	r6, 0
    43fe:	0f71      	bf      	0x42e0	// 42e0 <__GI___dtostr+0x26>
    4400:	3230      	movi      	r2, 48
    4402:	a540      	st.b      	r2, (r5, 0x0)
    4404:	2e00      	subi      	r6, 1
    4406:	2500      	addi      	r5, 1
    4408:	9805      	ld.w      	r0, (r14, 0x14)
    440a:	3840      	cmpnei      	r0, 0
    440c:	08cf      	bt      	0x45aa	// 45aa <__GI___dtostr+0x2f0>
    440e:	9822      	ld.w      	r1, (r14, 0x8)
    4410:	5d65      	subu      	r3, r5, r1
    4412:	2300      	addi      	r3, 1
    4414:	984b      	ld.w      	r2, (r14, 0x2c)
    4416:	648c      	cmphs      	r3, r2
    4418:	08a5      	bt      	0x4562	// 4562 <__GI___dtostr+0x2a8>
    441a:	3e40      	cmpnei      	r6, 0
    441c:	0f62      	bf      	0x42e0	// 42e0 <__GI___dtostr+0x26>
    441e:	372e      	movi      	r7, 46
    4420:	a5e0      	st.b      	r7, (r5, 0x0)
    4422:	980b      	ld.w      	r0, (r14, 0x2c)
    4424:	5de2      	addi      	r7, r5, 1
    4426:	9822      	ld.w      	r1, (r14, 0x8)
    4428:	2000      	addi      	r0, 1
    442a:	5f65      	subu      	r3, r7, r1
    442c:	584d      	subu      	r2, r0, r3
    442e:	2e00      	subi      	r6, 1
    4430:	b845      	st.w      	r2, (r14, 0x14)
    4432:	9805      	ld.w      	r0, (r14, 0x14)
    4434:	6418      	cmphs      	r6, r0
    4436:	0f55      	bf      	0x42e0	// 42e0 <__GI___dtostr+0x26>
    4438:	6d43      	mov      	r5, r0
    443a:	615c      	addu      	r5, r7
    443c:	36ff      	movi      	r6, 255
    443e:	655e      	cmpne      	r7, r5
    4440:	0c91      	bf      	0x4562	// 4562 <__GI___dtostr+0x2a8>
    4442:	6c93      	mov      	r2, r4
    4444:	9863      	ld.w      	r3, (r14, 0xc)
    4446:	9806      	ld.w      	r0, (r14, 0x18)
    4448:	9827      	ld.w      	r1, (r14, 0x1c)
    444a:	e3fff6f5 	bsr      	0x3234	// 3234 <__divdf3>
    444e:	e3fff7bb 	bsr      	0x33c4	// 33c4 <__fixdfsi>
    4452:	3130      	movi      	r1, 48
    4454:	6040      	addu      	r1, r0
    4456:	a720      	st.b      	r1, (r7, 0x0)
    4458:	6818      	and      	r0, r6
    445a:	e00001c7 	bsr      	0x47e8	// 47e8 <__floatsidf>
    445e:	6c93      	mov      	r2, r4
    4460:	9863      	ld.w      	r3, (r14, 0xc)
    4462:	e3fff5cf 	bsr      	0x3000	// 3000 <__muldf3>
    4466:	6c83      	mov      	r2, r0
    4468:	6cc7      	mov      	r3, r1
    446a:	9806      	ld.w      	r0, (r14, 0x18)
    446c:	9827      	ld.w      	r1, (r14, 0x1c)
    446e:	e3fff5ad 	bsr      	0x2fc8	// 2fc8 <__subdf3>
    4472:	b806      	st.w      	r0, (r14, 0x18)
    4474:	b827      	st.w      	r1, (r14, 0x1c)
    4476:	6c13      	mov      	r0, r4
    4478:	9823      	ld.w      	r1, (r14, 0xc)
    447a:	3200      	movi      	r2, 0
    447c:	1278      	lrw      	r3, 0x40240000	// 45dc <__GI___dtostr+0x322>
    447e:	e3fff6db 	bsr      	0x3234	// 3234 <__divdf3>
    4482:	2700      	addi      	r7, 1
    4484:	6d03      	mov      	r4, r0
    4486:	b823      	st.w      	r1, (r14, 0xc)
    4488:	07db      	br      	0x443e	// 443e <__GI___dtostr+0x184>
    448a:	98a2      	ld.w      	r5, (r14, 0x8)
    448c:	9884      	ld.w      	r4, (r14, 0x10)
    448e:	077a      	br      	0x4382	// 4382 <__GI___dtostr+0xc8>
    4490:	1276      	lrw      	r3, 0x3fb99999	// 45e8 <__GI___dtostr+0x32e>
    4492:	1257      	lrw      	r2, 0x9999999a	// 45ec <__GI___dtostr+0x332>
    4494:	e3fff5b6 	bsr      	0x3000	// 3000 <__muldf3>
    4498:	9865      	ld.w      	r3, (r14, 0x14)
    449a:	2300      	addi      	r3, 1
    449c:	0776      	br      	0x4388	// 4388 <__GI___dtostr+0xce>
    449e:	3080      	movi      	r0, 128
    44a0:	4056      	lsli      	r2, r0, 22
    44a2:	9823      	ld.w      	r1, (r14, 0xc)
    44a4:	6c13      	mov      	r0, r4
    44a6:	1273      	lrw      	r3, 0x4202a05f	// 45f0 <__GI___dtostr+0x336>
    44a8:	e3fff5ac 	bsr      	0x3000	// 3000 <__muldf3>
    44ac:	6d03      	mov      	r4, r0
    44ae:	b823      	st.w      	r1, (r14, 0xc)
    44b0:	2f09      	subi      	r7, 10
    44b2:	0796      	br      	0x43de	// 43de <__GI___dtostr+0x124>
    44b4:	6c13      	mov      	r0, r4
    44b6:	9823      	ld.w      	r1, (r14, 0xc)
    44b8:	3200      	movi      	r2, 0
    44ba:	1269      	lrw      	r3, 0x40240000	// 45dc <__GI___dtostr+0x322>
    44bc:	e3fff5a2 	bsr      	0x3000	// 3000 <__muldf3>
    44c0:	6d03      	mov      	r4, r0
    44c2:	b823      	st.w      	r1, (r14, 0xc)
    44c4:	2f00      	subi      	r7, 1
    44c6:	078e      	br      	0x43e2	// 43e2 <__GI___dtostr+0x128>
    44c8:	9863      	ld.w      	r3, (r14, 0xc)
    44ca:	6c93      	mov      	r2, r4
    44cc:	9806      	ld.w      	r0, (r14, 0x18)
    44ce:	9827      	ld.w      	r1, (r14, 0x1c)
    44d0:	e3fff6b2 	bsr      	0x3234	// 3234 <__divdf3>
    44d4:	e3fff778 	bsr      	0x33c4	// 33c4 <__fixdfsi>
    44d8:	3f40      	cmpnei      	r7, 0
    44da:	74c0      	zextb      	r3, r0
    44dc:	0c03      	bf      	0x44e2	// 44e2 <__GI___dtostr+0x228>
    44de:	3b40      	cmpnei      	r3, 0
    44e0:	0c58      	bf      	0x4590	// 4590 <__GI___dtostr+0x2d6>
    44e2:	232f      	addi      	r3, 48
    44e4:	3e40      	cmpnei      	r6, 0
    44e6:	a560      	st.b      	r3, (r5, 0x0)
    44e8:	2500      	addi      	r5, 1
    44ea:	0842      	bt      	0x456e	// 456e <__GI___dtostr+0x2b4>
    44ec:	6c93      	mov      	r2, r4
    44ee:	9863      	ld.w      	r3, (r14, 0xc)
    44f0:	980a      	ld.w      	r0, (r14, 0x28)
    44f2:	9824      	ld.w      	r1, (r14, 0x10)
    44f4:	e3fff6a0 	bsr      	0x3234	// 3234 <__divdf3>
    44f8:	9845      	ld.w      	r2, (r14, 0x14)
    44fa:	988b      	ld.w      	r4, (r14, 0x2c)
    44fc:	b841      	st.w      	r2, (r14, 0x4)
    44fe:	b880      	st.w      	r4, (r14, 0x0)
    4500:	3300      	movi      	r3, 0
    4502:	9842      	ld.w      	r2, (r14, 0x8)
    4504:	e3fffedb 	bsr      	0x42ba	// 42ba <__GI___dtostr>
    4508:	3840      	cmpnei      	r0, 0
    450a:	0eeb      	bf      	0x42e0	// 42e0 <__GI___dtostr+0x26>
    450c:	5dc0      	addu      	r6, r5, r0
    450e:	37fa      	movi      	r7, 250
    4510:	3565      	movi      	r5, 101
    4512:	6c02      	nor      	r0, r0
    4514:	a6a0      	st.b      	r5, (r6, 0x0)
    4516:	6d03      	mov      	r4, r0
    4518:	5ea2      	addi      	r5, r6, 1
    451a:	3101      	movi      	r1, 1
    451c:	3604      	movi      	r6, 4
    451e:	47e2      	lsli      	r7, r7, 2
    4520:	9808      	ld.w      	r0, (r14, 0x20)
    4522:	65c1      	cmplt      	r0, r7
    4524:	0c03      	bf      	0x452a	// 452a <__GI___dtostr+0x270>
    4526:	3940      	cmpnei      	r1, 0
    4528:	0811      	bt      	0x454a	// 454a <__GI___dtostr+0x290>
    452a:	3c40      	cmpnei      	r4, 0
    452c:	0c08      	bf      	0x453c	// 453c <__GI___dtostr+0x282>
    452e:	6c5f      	mov      	r1, r7
    4530:	9808      	ld.w      	r0, (r14, 0x20)
    4532:	e00012df 	bsr      	0x6af0	// 6af0 <__divsi3>
    4536:	202f      	addi      	r0, 48
    4538:	a500      	st.b      	r0, (r5, 0x0)
    453a:	2500      	addi      	r5, 1
    453c:	6c5f      	mov      	r1, r7
    453e:	9808      	ld.w      	r0, (r14, 0x20)
    4540:	e00012fc 	bsr      	0x6b38	// 6b38 <__modsi3>
    4544:	2c00      	subi      	r4, 1
    4546:	b808      	st.w      	r0, (r14, 0x20)
    4548:	3100      	movi      	r1, 0
    454a:	b823      	st.w      	r1, (r14, 0xc)
    454c:	6c1f      	mov      	r0, r7
    454e:	310a      	movi      	r1, 10
    4550:	2e00      	subi      	r6, 1
    4552:	e00012cf 	bsr      	0x6af0	// 6af0 <__divsi3>
    4556:	3e40      	cmpnei      	r6, 0
    4558:	6dc3      	mov      	r7, r0
    455a:	9823      	ld.w      	r1, (r14, 0xc)
    455c:	0be2      	bt      	0x4520	// 4520 <__GI___dtostr+0x266>
    455e:	3c40      	cmpnei      	r4, 0
    4560:	0ec0      	bf      	0x42e0	// 42e0 <__GI___dtostr+0x26>
    4562:	9842      	ld.w      	r2, (r14, 0x8)
    4564:	3300      	movi      	r3, 0
    4566:	5d89      	subu      	r4, r5, r2
    4568:	a560      	st.b      	r3, (r5, 0x0)
    456a:	b889      	st.w      	r4, (r14, 0x24)
    456c:	06ba      	br      	0x42e0	// 42e0 <__GI___dtostr+0x26>
    456e:	7400      	zextb      	r0, r0
    4570:	e000013c 	bsr      	0x47e8	// 47e8 <__floatsidf>
    4574:	6c93      	mov      	r2, r4
    4576:	9863      	ld.w      	r3, (r14, 0xc)
    4578:	e3fff544 	bsr      	0x3000	// 3000 <__muldf3>
    457c:	6c83      	mov      	r2, r0
    457e:	6cc7      	mov      	r3, r1
    4580:	9806      	ld.w      	r0, (r14, 0x18)
    4582:	9827      	ld.w      	r1, (r14, 0x1c)
    4584:	e3fff522 	bsr      	0x2fc8	// 2fc8 <__subdf3>
    4588:	b806      	st.w      	r0, (r14, 0x18)
    458a:	b827      	st.w      	r1, (r14, 0x1c)
    458c:	2e00      	subi      	r6, 1
    458e:	3700      	movi      	r7, 0
    4590:	6c13      	mov      	r0, r4
    4592:	9823      	ld.w      	r1, (r14, 0xc)
    4594:	3200      	movi      	r2, 0
    4596:	1072      	lrw      	r3, 0x40240000	// 45dc <__GI___dtostr+0x322>
    4598:	e3fff64e 	bsr      	0x3234	// 3234 <__divdf3>
    459c:	6d03      	mov      	r4, r0
    459e:	b823      	st.w      	r1, (r14, 0xc)
    45a0:	0723      	br      	0x43e6	// 43e6 <__GI___dtostr+0x12c>
    45a2:	1012      	lrw      	r0, 0x3fb99999	// 45e8 <__GI___dtostr+0x32e>
    45a4:	1092      	lrw      	r4, 0x9999999a	// 45ec <__GI___dtostr+0x332>
    45a6:	b803      	st.w      	r0, (r14, 0xc)
    45a8:	0727      	br      	0x43f6	// 43f6 <__GI___dtostr+0x13c>
    45aa:	3e40      	cmpnei      	r6, 0
    45ac:	0e9a      	bf      	0x42e0	// 42e0 <__GI___dtostr+0x26>
    45ae:	372e      	movi      	r7, 46
    45b0:	a5e0      	st.b      	r7, (r5, 0x0)
    45b2:	2e00      	subi      	r6, 1
    45b4:	5de2      	addi      	r7, r5, 1
    45b6:	073e      	br      	0x4432	// 4432 <__GI___dtostr+0x178>
    45b8:	3e40      	cmpnei      	r6, 0
    45ba:	0ac8      	bt      	0x434a	// 434a <__GI___dtostr+0x90>
    45bc:	3508      	movi      	r5, 8
    45be:	06ac      	br      	0x4316	// 4316 <__GI___dtostr+0x5c>
    45c0:	0000933b 	.long	0x0000933b
    45c4:	0000933f 	.long	0x0000933f
    45c8:	3fe00000 	.long	0x3fe00000
    45cc:	3ff00000 	.long	0x3ff00000
    45d0:	fffffc01 	.long	0xfffffc01
    45d4:	509f79ff 	.long	0x509f79ff
    45d8:	3fd34413 	.long	0x3fd34413
    45dc:	40240000 	.long	0x40240000
    45e0:	cccccccd 	.long	0xcccccccd
    45e4:	3feccccc 	.long	0x3feccccc
    45e8:	3fb99999 	.long	0x3fb99999
    45ec:	9999999a 	.long	0x9999999a
    45f0:	4202a05f 	.long	0x4202a05f

000045f4 <__isnan>:
    45f4:	6c83      	mov      	r2, r0
    45f6:	3a40      	cmpnei      	r2, 0
    45f8:	6c07      	mov      	r0, r1
    45fa:	6cc7      	mov      	r3, r1
    45fc:	3893      	bclri      	r0, 19
    45fe:	0804      	bt      	0x4606	// 4606 <__isnan+0x12>
    4600:	1027      	lrw      	r1, 0x7ff00000	// 461c <__isnan+0x28>
    4602:	6442      	cmpne      	r0, r1
    4604:	0c0a      	bf      	0x4618	// 4618 <__isnan+0x24>
    4606:	3000      	movi      	r0, 0
    4608:	1026      	lrw      	r1, 0xfff80000	// 4620 <__isnan+0x2c>
    460a:	6c81      	xor      	r2, r0
    460c:	6cc5      	xor      	r3, r1
    460e:	6c8c      	or      	r2, r3
    4610:	3a40      	cmpnei      	r2, 0
    4612:	6483      	mvcv      	r2
    4614:	7408      	zextb      	r0, r2
    4616:	783c      	jmp      	r15
    4618:	3001      	movi      	r0, 1
    461a:	07fe      	br      	0x4616	// 4616 <__isnan+0x22>
    461c:	7ff00000 	.long	0x7ff00000
    4620:	fff80000 	.long	0xfff80000

00004624 <__strcpy_fast>:
    4624:	14c1      	push      	r4
    4626:	6d03      	mov      	r4, r0
    4628:	6c87      	mov      	r2, r1
    462a:	6c90      	or      	r2, r4
    462c:	3303      	movi      	r3, 3
    462e:	688c      	and      	r2, r3
    4630:	3a40      	cmpnei      	r2, 0
    4632:	0c08      	bf      	0x4642	// 4642 <__strcpy_fast+0x1e>
    4634:	8160      	ld.b      	r3, (r1, 0x0)
    4636:	a460      	st.b      	r3, (r4, 0x0)
    4638:	2100      	addi      	r1, 1
    463a:	2400      	addi      	r4, 1
    463c:	3b40      	cmpnei      	r3, 0
    463e:	0bfb      	bt      	0x4634	// 4634 <__strcpy_fast+0x10>
    4640:	1481      	pop      	r4
    4642:	9160      	ld.w      	r3, (r1, 0x0)
    4644:	680f      	tstnbz      	r3
    4646:	0c2e      	bf      	0x46a2	// 46a2 <__strcpy_fast+0x7e>
    4648:	b460      	st.w      	r3, (r4, 0x0)
    464a:	9161      	ld.w      	r3, (r1, 0x4)
    464c:	680f      	tstnbz      	r3
    464e:	0c1d      	bf      	0x4688	// 4688 <__strcpy_fast+0x64>
    4650:	b461      	st.w      	r3, (r4, 0x4)
    4652:	9162      	ld.w      	r3, (r1, 0x8)
    4654:	680f      	tstnbz      	r3
    4656:	0c1b      	bf      	0x468c	// 468c <__strcpy_fast+0x68>
    4658:	b462      	st.w      	r3, (r4, 0x8)
    465a:	9163      	ld.w      	r3, (r1, 0xc)
    465c:	680f      	tstnbz      	r3
    465e:	0c19      	bf      	0x4690	// 4690 <__strcpy_fast+0x6c>
    4660:	b463      	st.w      	r3, (r4, 0xc)
    4662:	9164      	ld.w      	r3, (r1, 0x10)
    4664:	680f      	tstnbz      	r3
    4666:	0c17      	bf      	0x4694	// 4694 <__strcpy_fast+0x70>
    4668:	b464      	st.w      	r3, (r4, 0x10)
    466a:	9165      	ld.w      	r3, (r1, 0x14)
    466c:	680f      	tstnbz      	r3
    466e:	0c15      	bf      	0x4698	// 4698 <__strcpy_fast+0x74>
    4670:	b465      	st.w      	r3, (r4, 0x14)
    4672:	9166      	ld.w      	r3, (r1, 0x18)
    4674:	680f      	tstnbz      	r3
    4676:	0c13      	bf      	0x469c	// 469c <__strcpy_fast+0x78>
    4678:	b466      	st.w      	r3, (r4, 0x18)
    467a:	9167      	ld.w      	r3, (r1, 0x1c)
    467c:	680f      	tstnbz      	r3
    467e:	0c11      	bf      	0x46a0	// 46a0 <__strcpy_fast+0x7c>
    4680:	b467      	st.w      	r3, (r4, 0x1c)
    4682:	241f      	addi      	r4, 32
    4684:	211f      	addi      	r1, 32
    4686:	07de      	br      	0x4642	// 4642 <__strcpy_fast+0x1e>
    4688:	2403      	addi      	r4, 4
    468a:	040c      	br      	0x46a2	// 46a2 <__strcpy_fast+0x7e>
    468c:	2407      	addi      	r4, 8
    468e:	040a      	br      	0x46a2	// 46a2 <__strcpy_fast+0x7e>
    4690:	240b      	addi      	r4, 12
    4692:	0408      	br      	0x46a2	// 46a2 <__strcpy_fast+0x7e>
    4694:	240f      	addi      	r4, 16
    4696:	0406      	br      	0x46a2	// 46a2 <__strcpy_fast+0x7e>
    4698:	2413      	addi      	r4, 20
    469a:	0404      	br      	0x46a2	// 46a2 <__strcpy_fast+0x7e>
    469c:	2417      	addi      	r4, 24
    469e:	0402      	br      	0x46a2	// 46a2 <__strcpy_fast+0x7e>
    46a0:	241b      	addi      	r4, 28
    46a2:	3118      	movi      	r1, 24
    46a4:	6c8f      	mov      	r2, r3
    46a6:	7084      	lsl      	r2, r1
    46a8:	7085      	lsr      	r2, r1
    46aa:	a440      	st.b      	r2, (r4, 0x0)
    46ac:	3a40      	cmpnei      	r2, 0
    46ae:	0c12      	bf      	0x46d2	// 46d2 <__strcpy_fast+0xae>
    46b0:	3110      	movi      	r1, 16
    46b2:	6c8f      	mov      	r2, r3
    46b4:	7084      	lsl      	r2, r1
    46b6:	3118      	movi      	r1, 24
    46b8:	7085      	lsr      	r2, r1
    46ba:	a441      	st.b      	r2, (r4, 0x1)
    46bc:	3a40      	cmpnei      	r2, 0
    46be:	0c0a      	bf      	0x46d2	// 46d2 <__strcpy_fast+0xae>
    46c0:	3108      	movi      	r1, 8
    46c2:	6c8f      	mov      	r2, r3
    46c4:	7084      	lsl      	r2, r1
    46c6:	3118      	movi      	r1, 24
    46c8:	7085      	lsr      	r2, r1
    46ca:	a442      	st.b      	r2, (r4, 0x2)
    46cc:	3a40      	cmpnei      	r2, 0
    46ce:	0c02      	bf      	0x46d2	// 46d2 <__strcpy_fast+0xae>
    46d0:	b460      	st.w      	r3, (r4, 0x0)
    46d2:	1481      	pop      	r4

000046d4 <__GI_strchr>:
    46d4:	8040      	ld.b      	r2, (r0, 0x0)
    46d6:	644a      	cmpne      	r2, r1
    46d8:	0c06      	bf      	0x46e4	// 46e4 <__GI_strchr+0x10>
    46da:	3a40      	cmpnei      	r2, 0
    46dc:	0c03      	bf      	0x46e2	// 46e2 <__GI_strchr+0xe>
    46de:	2000      	addi      	r0, 1
    46e0:	07fa      	br      	0x46d4	// 46d4 <__GI_strchr>
    46e2:	6c0b      	mov      	r0, r2
    46e4:	783c      	jmp      	r15
	...

000046e8 <__GI_strerror>:
    46e8:	338f      	movi      	r3, 143
    46ea:	640c      	cmphs      	r3, r0
    46ec:	0c06      	bf      	0x46f8	// 46f8 <__GI_strerror+0x10>
    46ee:	4002      	lsli      	r0, r0, 2
    46f0:	1023      	lrw      	r1, 0x8e38	// 46fc <__GI_strerror+0x14>
    46f2:	6004      	addu      	r0, r1
    46f4:	9000      	ld.w      	r0, (r0, 0x0)
    46f6:	783c      	jmp      	r15
    46f8:	1002      	lrw      	r0, 0x9118	// 4700 <__GI_strerror+0x18>
    46fa:	07fe      	br      	0x46f6	// 46f6 <__GI_strerror+0xe>
    46fc:	00008e38 	.long	0x00008e38
    4700:	00009118 	.long	0x00009118

00004704 <__isinf>:
    4704:	3840      	cmpnei      	r0, 0
    4706:	6c83      	mov      	r2, r0
    4708:	6cc7      	mov      	r3, r1
    470a:	0804      	bt      	0x4712	// 4712 <__isinf+0xe>
    470c:	1028      	lrw      	r1, 0x7ff00000	// 472c <__isinf+0x28>
    470e:	644e      	cmpne      	r3, r1
    4710:	0c0b      	bf      	0x4726	// 4726 <__isinf+0x22>
    4712:	3000      	movi      	r0, 0
    4714:	1027      	lrw      	r1, 0xfff00000	// 4730 <__isinf+0x2c>
    4716:	6c81      	xor      	r2, r0
    4718:	6cc5      	xor      	r3, r1
    471a:	6c8c      	or      	r2, r3
    471c:	3a40      	cmpnei      	r2, 0
    471e:	64c3      	mvcv      	r3
    4720:	3000      	movi      	r0, 0
    4722:	600e      	subu      	r0, r3
    4724:	783c      	jmp      	r15
    4726:	3001      	movi      	r0, 1
    4728:	07fe      	br      	0x4724	// 4724 <__isinf+0x20>
    472a:	0000      	bkpt
    472c:	7ff00000 	.long	0x7ff00000
    4730:	fff00000 	.long	0xfff00000

00004734 <__eqdf2>:
    4734:	14d0      	push      	r15
    4736:	142e      	subi      	r14, r14, 56
    4738:	b800      	st.w      	r0, (r14, 0x0)
    473a:	b821      	st.w      	r1, (r14, 0x4)
    473c:	6c3b      	mov      	r0, r14
    473e:	1904      	addi      	r1, r14, 16
    4740:	b863      	st.w      	r3, (r14, 0xc)
    4742:	b842      	st.w      	r2, (r14, 0x8)
    4744:	e3fff82e 	bsr      	0x37a0	// 37a0 <__unpack_d>
    4748:	1909      	addi      	r1, r14, 36
    474a:	1802      	addi      	r0, r14, 8
    474c:	e3fff82a 	bsr      	0x37a0	// 37a0 <__unpack_d>
    4750:	9864      	ld.w      	r3, (r14, 0x10)
    4752:	3b01      	cmphsi      	r3, 2
    4754:	0c0a      	bf      	0x4768	// 4768 <__eqdf2+0x34>
    4756:	9869      	ld.w      	r3, (r14, 0x24)
    4758:	3b01      	cmphsi      	r3, 2
    475a:	0c07      	bf      	0x4768	// 4768 <__eqdf2+0x34>
    475c:	1909      	addi      	r1, r14, 36
    475e:	1804      	addi      	r0, r14, 16
    4760:	e3fff882 	bsr      	0x3864	// 3864 <__fpcmp_parts_d>
    4764:	140e      	addi      	r14, r14, 56
    4766:	1490      	pop      	r15
    4768:	3001      	movi      	r0, 1
    476a:	140e      	addi      	r14, r14, 56
    476c:	1490      	pop      	r15
	...

00004770 <__gtdf2>:
    4770:	14d0      	push      	r15
    4772:	142e      	subi      	r14, r14, 56
    4774:	b800      	st.w      	r0, (r14, 0x0)
    4776:	b821      	st.w      	r1, (r14, 0x4)
    4778:	6c3b      	mov      	r0, r14
    477a:	1904      	addi      	r1, r14, 16
    477c:	b863      	st.w      	r3, (r14, 0xc)
    477e:	b842      	st.w      	r2, (r14, 0x8)
    4780:	e3fff810 	bsr      	0x37a0	// 37a0 <__unpack_d>
    4784:	1909      	addi      	r1, r14, 36
    4786:	1802      	addi      	r0, r14, 8
    4788:	e3fff80c 	bsr      	0x37a0	// 37a0 <__unpack_d>
    478c:	9864      	ld.w      	r3, (r14, 0x10)
    478e:	3b01      	cmphsi      	r3, 2
    4790:	0c0a      	bf      	0x47a4	// 47a4 <__gtdf2+0x34>
    4792:	9869      	ld.w      	r3, (r14, 0x24)
    4794:	3b01      	cmphsi      	r3, 2
    4796:	0c07      	bf      	0x47a4	// 47a4 <__gtdf2+0x34>
    4798:	1909      	addi      	r1, r14, 36
    479a:	1804      	addi      	r0, r14, 16
    479c:	e3fff864 	bsr      	0x3864	// 3864 <__fpcmp_parts_d>
    47a0:	140e      	addi      	r14, r14, 56
    47a2:	1490      	pop      	r15
    47a4:	3000      	movi      	r0, 0
    47a6:	2800      	subi      	r0, 1
    47a8:	140e      	addi      	r14, r14, 56
    47aa:	1490      	pop      	r15

000047ac <__ltdf2>:
    47ac:	14d0      	push      	r15
    47ae:	142e      	subi      	r14, r14, 56
    47b0:	b800      	st.w      	r0, (r14, 0x0)
    47b2:	b821      	st.w      	r1, (r14, 0x4)
    47b4:	6c3b      	mov      	r0, r14
    47b6:	1904      	addi      	r1, r14, 16
    47b8:	b863      	st.w      	r3, (r14, 0xc)
    47ba:	b842      	st.w      	r2, (r14, 0x8)
    47bc:	e3fff7f2 	bsr      	0x37a0	// 37a0 <__unpack_d>
    47c0:	1909      	addi      	r1, r14, 36
    47c2:	1802      	addi      	r0, r14, 8
    47c4:	e3fff7ee 	bsr      	0x37a0	// 37a0 <__unpack_d>
    47c8:	9864      	ld.w      	r3, (r14, 0x10)
    47ca:	3b01      	cmphsi      	r3, 2
    47cc:	0c0a      	bf      	0x47e0	// 47e0 <__ltdf2+0x34>
    47ce:	9869      	ld.w      	r3, (r14, 0x24)
    47d0:	3b01      	cmphsi      	r3, 2
    47d2:	0c07      	bf      	0x47e0	// 47e0 <__ltdf2+0x34>
    47d4:	1909      	addi      	r1, r14, 36
    47d6:	1804      	addi      	r0, r14, 16
    47d8:	e3fff846 	bsr      	0x3864	// 3864 <__fpcmp_parts_d>
    47dc:	140e      	addi      	r14, r14, 56
    47de:	1490      	pop      	r15
    47e0:	3001      	movi      	r0, 1
    47e2:	140e      	addi      	r14, r14, 56
    47e4:	1490      	pop      	r15
	...

000047e8 <__floatsidf>:
    47e8:	14d1      	push      	r4, r15
    47ea:	1425      	subi      	r14, r14, 20
    47ec:	3303      	movi      	r3, 3
    47ee:	b860      	st.w      	r3, (r14, 0x0)
    47f0:	3840      	cmpnei      	r0, 0
    47f2:	487f      	lsri      	r3, r0, 31
    47f4:	b861      	st.w      	r3, (r14, 0x4)
    47f6:	0808      	bt      	0x4806	// 4806 <__floatsidf+0x1e>
    47f8:	3302      	movi      	r3, 2
    47fa:	b860      	st.w      	r3, (r14, 0x0)
    47fc:	6c3b      	mov      	r0, r14
    47fe:	e3fff703 	bsr      	0x3604	// 3604 <__pack_d>
    4802:	1405      	addi      	r14, r14, 20
    4804:	1491      	pop      	r4, r15
    4806:	38df      	btsti      	r0, 31
    4808:	0812      	bt      	0x482c	// 482c <__floatsidf+0x44>
    480a:	6d03      	mov      	r4, r0
    480c:	6c13      	mov      	r0, r4
    480e:	e3fff63d 	bsr      	0x3488	// 3488 <__clzsi2>
    4812:	321d      	movi      	r2, 29
    4814:	6080      	addu      	r2, r0
    4816:	2802      	subi      	r0, 3
    4818:	38df      	btsti      	r0, 31
    481a:	0810      	bt      	0x483a	// 483a <__floatsidf+0x52>
    481c:	7100      	lsl      	r4, r0
    481e:	3300      	movi      	r3, 0
    4820:	b884      	st.w      	r4, (r14, 0x10)
    4822:	b863      	st.w      	r3, (r14, 0xc)
    4824:	333c      	movi      	r3, 60
    4826:	60ca      	subu      	r3, r2
    4828:	b862      	st.w      	r3, (r14, 0x8)
    482a:	07e9      	br      	0x47fc	// 47fc <__floatsidf+0x14>
    482c:	3380      	movi      	r3, 128
    482e:	4378      	lsli      	r3, r3, 24
    4830:	64c2      	cmpne      	r0, r3
    4832:	0c0d      	bf      	0x484c	// 484c <__floatsidf+0x64>
    4834:	3400      	movi      	r4, 0
    4836:	6102      	subu      	r4, r0
    4838:	07ea      	br      	0x480c	// 480c <__floatsidf+0x24>
    483a:	311f      	movi      	r1, 31
    483c:	4c61      	lsri      	r3, r4, 1
    483e:	604a      	subu      	r1, r2
    4840:	6c13      	mov      	r0, r4
    4842:	70c5      	lsr      	r3, r1
    4844:	7008      	lsl      	r0, r2
    4846:	b864      	st.w      	r3, (r14, 0x10)
    4848:	b803      	st.w      	r0, (r14, 0xc)
    484a:	07ed      	br      	0x4824	// 4824 <__floatsidf+0x3c>
    484c:	3000      	movi      	r0, 0
    484e:	1022      	lrw      	r1, 0xc1e00000	// 4854 <__floatsidf+0x6c>
    4850:	07d9      	br      	0x4802	// 4802 <__floatsidf+0x1a>
    4852:	0000      	bkpt
    4854:	c1e00000 	.long	0xc1e00000

Disassembly of section .text.__main:

00004858 <__main>:
extern char _bss_start[];
extern char _ebss[];


void __main( void ) 
{
    4858:	14d0      	push      	r15

  /* if the start of data (dst)
     is not equal to end of text (src) then
     copy it, else it's already in the right place
     */
  if( _start_data != _end_rodata ) {
    485a:	1009      	lrw      	r0, 0x20000000	// 487c <__main+0x24>
    485c:	1029      	lrw      	r1, 0x9acc	// 4880 <__main+0x28>
    485e:	6442      	cmpne      	r0, r1
    4860:	0c05      	bf      	0x486a	// 486a <__main+0x12>
//    __memcpy_fast( dst, src, (_end_data - _start_data));
    memcpy( dst, src, (_end_data - _start_data));
    4862:	1049      	lrw      	r2, 0x20000234	// 4884 <__main+0x2c>
    4864:	6082      	subu      	r2, r0
    4866:	e3fff931 	bsr      	0x3ac8	// 3ac8 <__memcpy_fast>
  }

  /* zero the bss 
   */
  if( _ebss - _bss_start ) {
    486a:	1048      	lrw      	r2, 0x20000374	// 4888 <__main+0x30>
    486c:	1008      	lrw      	r0, 0x20000234	// 488c <__main+0x34>
    486e:	640a      	cmpne      	r2, r0
    4870:	0c05      	bf      	0x487a	// 487a <__main+0x22>
//    __memset_fast( _bss_start, 0x00, ( _ebss - _bss_start ));
    memset( _bss_start, 0x00, ( _ebss - _bss_start ));
    4872:	6082      	subu      	r2, r0
    4874:	3100      	movi      	r1, 0
    4876:	e3fff8a9 	bsr      	0x39c8	// 39c8 <__memset_fast>
  }

	
}
    487a:	1490      	pop      	r15
    487c:	20000000 	.long	0x20000000
    4880:	00009acc 	.long	0x00009acc
    4884:	20000234 	.long	0x20000234
    4888:	20000374 	.long	0x20000374
    488c:	20000234 	.long	0x20000234

Disassembly of section .text.SYSCON_General_CMD.part.0:

00004890 <SYSCON_General_CMD.part.0>:
/*************************************************************/  
void SYSCON_General_CMD(FunctionalStatus NewState, SYSCON_General_CMD_TypeDef ENDIS_X )
{
	if (NewState != DISABLE)
	{
		if(ENDIS_X==ENDIS_EMOSC) 
    4890:	3848      	cmpnei      	r0, 8
    4892:	0809      	bt      	0x48a4	// 48a4 <SYSCON_General_CMD.part.0+0x14>
		GPIOA0->CONLR=(GPIOA0->CONLR & 0XFF00FFF)|0x00044000;					//PIN
    4894:	107a      	lrw      	r3, 0x20000050	// 48fc <SYSCON_General_CMD.part.0+0x6c>
    4896:	103b      	lrw      	r1, 0xff00fff	// 4900 <SYSCON_General_CMD.part.0+0x70>
    4898:	9340      	ld.w      	r2, (r3, 0x0)
    489a:	9260      	ld.w      	r3, (r2, 0x0)
    489c:	68c4      	and      	r3, r1
    489e:	3bae      	bseti      	r3, 14
    48a0:	3bb2      	bseti      	r3, 18
    48a2:	b260      	st.w      	r3, (r2, 0x0)
		SYSCON->GCER|=ENDIS_X;													//enable SYSCON General Control
    48a4:	1078      	lrw      	r3, 0x2000005c	// 4904 <SYSCON_General_CMD.part.0+0x74>
    48a6:	9360      	ld.w      	r3, (r3, 0x0)
    48a8:	9341      	ld.w      	r2, (r3, 0x4)
    48aa:	6c80      	or      	r2, r0
    48ac:	b341      	st.w      	r2, (r3, 0x4)
		while(!(SYSCON->GCSR&ENDIS_X));											//check  Enable?	
    48ae:	9343      	ld.w      	r2, (r3, 0xc)
    48b0:	6880      	and      	r2, r0
    48b2:	3a40      	cmpnei      	r2, 0
    48b4:	0ffd      	bf      	0x48ae	// 48ae <SYSCON_General_CMD.part.0+0x1e>
		switch(ENDIS_X)
    48b6:	3842      	cmpnei      	r0, 2
    48b8:	0807      	bt      	0x48c6	// 48c6 <SYSCON_General_CMD.part.0+0x36>
		{
			case ENDIS_IMOSC:
				while (!(SYSCON->CKST & ENDIS_IMOSC)); 	
    48ba:	3102      	movi      	r1, 2
    48bc:	9344      	ld.w      	r2, (r3, 0x10)
    48be:	6884      	and      	r2, r1
    48c0:	3a40      	cmpnei      	r2, 0
    48c2:	0ffd      	bf      	0x48bc	// 48bc <SYSCON_General_CMD.part.0+0x2c>
	{
		SYSCON->GCDR|=ENDIS_X;													//disable SYSCON General Control
		while(SYSCON->GCSR&ENDIS_X);											//check  Disable?
		SYSCON->ICR|=ENDIS_X;													// Clear ENDIS_X stable bit
	}
}
    48c4:	783c      	jmp      	r15
		switch(ENDIS_X)
    48c6:	3802      	cmphsi      	r0, 3
    48c8:	0809      	bt      	0x48da	// 48da <SYSCON_General_CMD.part.0+0x4a>
    48ca:	3841      	cmpnei      	r0, 1
    48cc:	0bfc      	bt      	0x48c4	// 48c4 <SYSCON_General_CMD.part.0+0x34>
				while (!(SYSCON->CKST & ENDIS_ISOSC)); 
    48ce:	3101      	movi      	r1, 1
    48d0:	9344      	ld.w      	r2, (r3, 0x10)
    48d2:	6884      	and      	r2, r1
    48d4:	3a40      	cmpnei      	r2, 0
    48d6:	0ffd      	bf      	0x48d0	// 48d0 <SYSCON_General_CMD.part.0+0x40>
    48d8:	07f6      	br      	0x48c4	// 48c4 <SYSCON_General_CMD.part.0+0x34>
		switch(ENDIS_X)
    48da:	3848      	cmpnei      	r0, 8
    48dc:	0807      	bt      	0x48ea	// 48ea <SYSCON_General_CMD.part.0+0x5a>
				while (!(SYSCON->CKST & ENDIS_EMOSC)); 
    48de:	3108      	movi      	r1, 8
    48e0:	9344      	ld.w      	r2, (r3, 0x10)
    48e2:	6884      	and      	r2, r1
    48e4:	3a40      	cmpnei      	r2, 0
    48e6:	0ffd      	bf      	0x48e0	// 48e0 <SYSCON_General_CMD.part.0+0x50>
    48e8:	07ee      	br      	0x48c4	// 48c4 <SYSCON_General_CMD.part.0+0x34>
		switch(ENDIS_X)
    48ea:	3850      	cmpnei      	r0, 16
    48ec:	0bec      	bt      	0x48c4	// 48c4 <SYSCON_General_CMD.part.0+0x34>
				while (!(SYSCON->CKST & ENDIS_HFOSC)); 
    48ee:	3110      	movi      	r1, 16
    48f0:	9344      	ld.w      	r2, (r3, 0x10)
    48f2:	6884      	and      	r2, r1
    48f4:	3a40      	cmpnei      	r2, 0
    48f6:	0ffd      	bf      	0x48f0	// 48f0 <SYSCON_General_CMD.part.0+0x60>
    48f8:	07e6      	br      	0x48c4	// 48c4 <SYSCON_General_CMD.part.0+0x34>
    48fa:	0000      	bkpt
    48fc:	20000050 	.long	0x20000050
    4900:	0ff00fff 	.long	0x0ff00fff
    4904:	2000005c 	.long	0x2000005c

Disassembly of section .text.SYSCON_RST_VALUE:

00004908 <SYSCON_RST_VALUE>:
	SYSCON->RAMCHK=SYSCON_RAMCHK_RST;
    4908:	106f      	lrw      	r3, 0x2000005c	// 4944 <SYSCON_RST_VALUE+0x3c>
    490a:	1050      	lrw      	r2, 0xffff	// 4948 <SYSCON_RST_VALUE+0x40>
    490c:	9360      	ld.w      	r3, (r3, 0x0)
    490e:	b345      	st.w      	r2, (r3, 0x14)
	SYSCON->EFLCHK=SYSCON_EFLCHK_RST;
    4910:	104f      	lrw      	r2, 0xffffff	// 494c <SYSCON_RST_VALUE+0x44>
    4912:	b346      	st.w      	r2, (r3, 0x18)
	SYSCON->SCLKCR=SYSCON_SCLKCR_RST;
    4914:	104f      	lrw      	r2, 0xd22d0000	// 4950 <SYSCON_RST_VALUE+0x48>
    4916:	b347      	st.w      	r2, (r3, 0x1c)
	SYSCON->OSTR=SYSCON_OSTR_RST;
    4918:	104f      	lrw      	r2, 0x70ff3bff	// 4954 <SYSCON_RST_VALUE+0x4c>
    491a:	b350      	st.w      	r2, (r3, 0x40)
	SYSCON->EXIRT=SYSCON_EXIRT_RST;
    491c:	3180      	movi      	r1, 128
	SYSCON->LVDCR=SYSCON_LVDCR_RST;
    491e:	320a      	movi      	r2, 10
    4920:	b353      	st.w      	r2, (r3, 0x4c)
	SYSCON->EXIRT=SYSCON_EXIRT_RST;
    4922:	604c      	addu      	r1, r3
    4924:	3200      	movi      	r2, 0
	SYSCON->IWDCR=SYSCON_IWDCR_RST;
    4926:	100d      	lrw      	r0, 0x70c	// 4958 <SYSCON_RST_VALUE+0x50>
	SYSCON->EXIRT=SYSCON_EXIRT_RST;
    4928:	b145      	st.w      	r2, (r1, 0x14)
	SYSCON->UREG0=SYSCON_UREG0_RST;
    492a:	23ff      	addi      	r3, 256
	SYSCON->EXIFT=SYSCON_EXIFT_RST;
    492c:	b146      	st.w      	r2, (r1, 0x18)
	SYSCON->IWDCR=SYSCON_IWDCR_RST;
    492e:	b10d      	st.w      	r0, (r1, 0x34)
	SYSCON->IWDCNT=SYSCON_IWDCNT_RST;
    4930:	100b      	lrw      	r0, 0x3fe	// 495c <SYSCON_RST_VALUE+0x54>
    4932:	b10e      	st.w      	r0, (r1, 0x38)
	SYSCON->EVTRG=SYSCON_EVTRG_RST;
    4934:	b15d      	st.w      	r2, (r1, 0x74)
	SYSCON->EVPS=SYSCON_EVPS_RST;
    4936:	b15e      	st.w      	r2, (r1, 0x78)
	SYSCON->EVSWF=SYSCON_EVSWF_RST;
    4938:	b15f      	st.w      	r2, (r1, 0x7c)
	SYSCON->UREG0=SYSCON_UREG0_RST;
    493a:	b340      	st.w      	r2, (r3, 0x0)
	SYSCON->UREG1=SYSCON_UREG1_RST;
    493c:	b341      	st.w      	r2, (r3, 0x4)
	SYSCON->UREG2=SYSCON_UREG2_RST;
    493e:	b342      	st.w      	r2, (r3, 0x8)
	SYSCON->UREG3=SYSCON_UREG3_RST;
    4940:	b343      	st.w      	r2, (r3, 0xc)
}
    4942:	783c      	jmp      	r15
    4944:	2000005c 	.long	0x2000005c
    4948:	0000ffff 	.long	0x0000ffff
    494c:	00ffffff 	.long	0x00ffffff
    4950:	d22d0000 	.long	0xd22d0000
    4954:	70ff3bff 	.long	0x70ff3bff
    4958:	0000070c 	.long	0x0000070c
    495c:	000003fe 	.long	0x000003fe

Disassembly of section .text.SYSCON_General_CMD:

00004960 <SYSCON_General_CMD>:
{
    4960:	14d0      	push      	r15
	if (NewState != DISABLE)
    4962:	3840      	cmpnei      	r0, 0
    4964:	0c05      	bf      	0x496e	// 496e <SYSCON_General_CMD+0xe>
    4966:	6c07      	mov      	r0, r1
    4968:	e3ffff94 	bsr      	0x4890	// 4890 <SYSCON_General_CMD.part.0>
}
    496c:	1490      	pop      	r15
		SYSCON->GCDR|=ENDIS_X;													//disable SYSCON General Control
    496e:	1068      	lrw      	r3, 0x2000005c	// 498c <SYSCON_General_CMD+0x2c>
    4970:	9360      	ld.w      	r3, (r3, 0x0)
    4972:	9342      	ld.w      	r2, (r3, 0x8)
    4974:	6c84      	or      	r2, r1
    4976:	b342      	st.w      	r2, (r3, 0x8)
		while(SYSCON->GCSR&ENDIS_X);											//check  Disable?
    4978:	9343      	ld.w      	r2, (r3, 0xc)
    497a:	6884      	and      	r2, r1
    497c:	3a40      	cmpnei      	r2, 0
    497e:	0bfd      	bt      	0x4978	// 4978 <SYSCON_General_CMD+0x18>
		SYSCON->ICR|=ENDIS_X;													// Clear ENDIS_X stable bit
    4980:	237f      	addi      	r3, 128
    4982:	9301      	ld.w      	r0, (r3, 0x4)
    4984:	6c40      	or      	r1, r0
    4986:	b321      	st.w      	r1, (r3, 0x4)
}
    4988:	07f2      	br      	0x496c	// 496c <SYSCON_General_CMD+0xc>
    498a:	0000      	bkpt
    498c:	2000005c 	.long	0x2000005c

Disassembly of section .text.SystemCLK_HCLKDIV_PCLKDIV_Config:

00004990 <SystemCLK_HCLKDIV_PCLKDIV_Config>:
//SystemClk_data_x:EMOSC_24M,EMOSC_16M,EMOSC_12M,EMOSC_8M,EMOSC_4M,EMOSC_36K,
//ISOSC,IMOSC,HFOSC_48M,HFOSC_24M,HFOSC_12M,HFOSC_6M
//ReturnValue:NONE
/*************************************************************/ 
void SystemCLK_HCLKDIV_PCLKDIV_Config(SystemCLK_TypeDef SYSCLK_X , SystemCLK_Div_TypeDef HCLK_DIV_X , PCLK_Div_TypeDef PCLK_DIV_X , SystemClk_data_TypeDef SystemClk_data_x )
{
    4990:	14c2      	push      	r4-r5
	if(SystemClk_data_x==HFOSC_48M)
    4992:	3b48      	cmpnei      	r3, 8
    4994:	0826      	bt      	0x49e0	// 49e0 <SystemCLK_HCLKDIV_PCLKDIV_Config+0x50>
	{
		IFC->CEDR=0X01;						//CLKEN
    4996:	1098      	lrw      	r4, 0x20000060	// 49f4 <SystemCLK_HCLKDIV_PCLKDIV_Config+0x64>
    4998:	3501      	movi      	r5, 1
    499a:	9480      	ld.w      	r4, (r4, 0x0)
    499c:	b4a1      	st.w      	r5, (r4, 0x4)
		IFC->MR=0X02|(0X01<<16);			//
    499e:	10b7      	lrw      	r5, 0x10002	// 49f8 <SystemCLK_HCLKDIV_PCLKDIV_Config+0x68>
	}
	if((SystemClk_data_x==EMOSC_24M)||(SystemClk_data_x==EMOSC_16M)||(SystemClk_data_x==HFOSC_24M))
	{
		IFC->CEDR=0X01;						//CLKEN
		IFC->MR=0X01|(0X01<<16);			//
    49a0:	b4a5      	st.w      	r5, (r4, 0x14)
	}
	if((SystemClk_data_x==EMOSC_12M)||(SystemClk_data_x==EMOSC_8M)||(SystemClk_data_x==EMOSC_4M)||(SystemClk_data_x==EMOSC_36K)
		||(SystemClk_data_x==IMOSC)||(SystemClk_data_x==ISOSC)||(SystemClk_data_x==HFOSC_12M)||(SystemClk_data_x==HFOSC_6M))
    49a2:	5b87      	subi      	r4, r3, 2
	if((SystemClk_data_x==EMOSC_12M)||(SystemClk_data_x==EMOSC_8M)||(SystemClk_data_x==EMOSC_4M)||(SystemClk_data_x==EMOSC_36K)
    49a4:	3c05      	cmphsi      	r4, 6
    49a6:	0c04      	bf      	0x49ae	// 49ae <SystemCLK_HCLKDIV_PCLKDIV_Config+0x1e>
		||(SystemClk_data_x==IMOSC)||(SystemClk_data_x==ISOSC)||(SystemClk_data_x==HFOSC_12M)||(SystemClk_data_x==HFOSC_6M))
    49a8:	2b09      	subi      	r3, 10
    49aa:	3b01      	cmphsi      	r3, 2
    49ac:	0807      	bt      	0x49ba	// 49ba <SystemCLK_HCLKDIV_PCLKDIV_Config+0x2a>
	{
		IFC->CEDR=0X01;						//CLKEN
    49ae:	1072      	lrw      	r3, 0x20000060	// 49f4 <SystemCLK_HCLKDIV_PCLKDIV_Config+0x64>
    49b0:	3401      	movi      	r4, 1
    49b2:	9360      	ld.w      	r3, (r3, 0x0)
    49b4:	b381      	st.w      	r4, (r3, 0x4)
		IFC->MR=0X00|(0X00<<16);			//
    49b6:	3400      	movi      	r4, 0
    49b8:	b385      	st.w      	r4, (r3, 0x14)
	}
	SYSCON->SCLKCR=SYSCLK_KEY | HCLK_DIV_X| SYSCLK_X;
    49ba:	1091      	lrw      	r4, 0xd22d0000	// 49fc <SystemCLK_HCLKDIV_PCLKDIV_Config+0x6c>
    49bc:	6c10      	or      	r0, r4
    49be:	1071      	lrw      	r3, 0x2000005c	// 4a00 <SystemCLK_HCLKDIV_PCLKDIV_Config+0x70>
    49c0:	6c40      	or      	r1, r0
    49c2:	9360      	ld.w      	r3, (r3, 0x0)
	while (!(SYSCON->CKST & (1<<8))); 											// waiting for sysclk stable
    49c4:	3080      	movi      	r0, 128
	SYSCON->SCLKCR=SYSCLK_KEY | HCLK_DIV_X| SYSCLK_X;
    49c6:	b327      	st.w      	r1, (r3, 0x1c)
	while (!(SYSCON->CKST & (1<<8))); 											// waiting for sysclk stable
    49c8:	4001      	lsli      	r0, r0, 1
    49ca:	9324      	ld.w      	r1, (r3, 0x10)
    49cc:	6840      	and      	r1, r0
    49ce:	3940      	cmpnei      	r1, 0
    49d0:	0ffd      	bf      	0x49ca	// 49ca <SystemCLK_HCLKDIV_PCLKDIV_Config+0x3a>
	SYSCON->PCLKCR=PCLK_KEY|PCLK_DIV_X;											//PCLK DIV 1 2 4 6 8 16		
    49d2:	102d      	lrw      	r1, 0xc33c0000	// 4a04 <SystemCLK_HCLKDIV_PCLKDIV_Config+0x74>
    49d4:	6c48      	or      	r1, r2
    49d6:	b328      	st.w      	r1, (r3, 0x20)
	while(SYSCON->PCLKCR!=PCLK_DIV_X);											//Wait PCLK DIV
    49d8:	9328      	ld.w      	r1, (r3, 0x20)
    49da:	644a      	cmpne      	r2, r1
    49dc:	0bfe      	bt      	0x49d8	// 49d8 <SystemCLK_HCLKDIV_PCLKDIV_Config+0x48>
}
    49de:	1482      	pop      	r4-r5
	if((SystemClk_data_x==EMOSC_24M)||(SystemClk_data_x==EMOSC_16M)||(SystemClk_data_x==HFOSC_24M))
    49e0:	3b01      	cmphsi      	r3, 2
    49e2:	0c03      	bf      	0x49e8	// 49e8 <SystemCLK_HCLKDIV_PCLKDIV_Config+0x58>
    49e4:	3b49      	cmpnei      	r3, 9
    49e6:	0bde      	bt      	0x49a2	// 49a2 <SystemCLK_HCLKDIV_PCLKDIV_Config+0x12>
		IFC->CEDR=0X01;						//CLKEN
    49e8:	1083      	lrw      	r4, 0x20000060	// 49f4 <SystemCLK_HCLKDIV_PCLKDIV_Config+0x64>
    49ea:	3501      	movi      	r5, 1
    49ec:	9480      	ld.w      	r4, (r4, 0x0)
    49ee:	b4a1      	st.w      	r5, (r4, 0x4)
		IFC->MR=0X01|(0X01<<16);			//
    49f0:	10a6      	lrw      	r5, 0x10001	// 4a08 <SystemCLK_HCLKDIV_PCLKDIV_Config+0x78>
    49f2:	07d7      	br      	0x49a0	// 49a0 <SystemCLK_HCLKDIV_PCLKDIV_Config+0x10>
    49f4:	20000060 	.long	0x20000060
    49f8:	00010002 	.long	0x00010002
    49fc:	d22d0000 	.long	0xd22d0000
    4a00:	2000005c 	.long	0x2000005c
    4a04:	c33c0000 	.long	0xc33c0000
    4a08:	00010001 	.long	0x00010001

Disassembly of section .text.SYSCON_HFOSC_SELECTE:

00004a0c <SYSCON_HFOSC_SELECTE>:
//EntryParameter:HFOSC_SELECTE_X
//HFOSC_SELECTE_X:HFOSC_SELECTE_48M,HFOSC_SELECTE_24M;HFOSC_SELECTE_12M;HFOSC_SELECTE_6M
//ReturnValue:NONE
/*************************************************************/  
void SYSCON_HFOSC_SELECTE(HFOSC_SELECTE_TypeDef HFOSC_SELECTE_X)
{		
    4a0c:	14d1      	push      	r4, r15
    4a0e:	6d03      	mov      	r4, r0
	SYSCON_General_CMD(DISABLE,ENDIS_HFOSC);					//disable HFOSC
    4a10:	3110      	movi      	r1, 16
    4a12:	3000      	movi      	r0, 0
    4a14:	e3ffffa6 	bsr      	0x4960	// 4960 <SYSCON_General_CMD>
	SYSCON->OPT1 = (SYSCON->OPT1 & 0XFFFFFFCF)|HFOSC_SELECTE_X;
    4a18:	1066      	lrw      	r3, 0x2000005c	// 4a30 <SYSCON_HFOSC_SELECTE+0x24>
    4a1a:	9360      	ld.w      	r3, (r3, 0x0)
    4a1c:	9319      	ld.w      	r0, (r3, 0x64)
    4a1e:	3884      	bclri      	r0, 4
    4a20:	3885      	bclri      	r0, 5
    4a22:	6c10      	or      	r0, r4
    4a24:	b319      	st.w      	r0, (r3, 0x64)
    4a26:	3010      	movi      	r0, 16
    4a28:	e3ffff34 	bsr      	0x4890	// 4890 <SYSCON_General_CMD.part.0>
	SYSCON_General_CMD(ENABLE,ENDIS_HFOSC);						//enable HFOSC
}
    4a2c:	1491      	pop      	r4, r15
    4a2e:	0000      	bkpt
    4a30:	2000005c 	.long	0x2000005c

Disassembly of section .text.SYSCON_WDT_CMD:

00004a34 <SYSCON_WDT_CMD>:
//EntryParameter:,NewState
//NewState:ENABLE,DISABLE
//ReturnValue:NONE
/*************************************************************/
void SYSCON_WDT_CMD(FunctionalStatus NewState)
{
    4a34:	106c      	lrw      	r3, 0x2000005c	// 4a64 <SYSCON_WDT_CMD+0x30>
	if(NewState != DISABLE)
    4a36:	3840      	cmpnei      	r0, 0
	{
		SYSCON->IWDEDR=IWDTEDR_KEY|Enable_IWDT;
    4a38:	9360      	ld.w      	r3, (r3, 0x0)
    4a3a:	237f      	addi      	r3, 128
	if(NewState != DISABLE)
    4a3c:	0c0a      	bf      	0x4a50	// 4a50 <SYSCON_WDT_CMD+0x1c>
		SYSCON->IWDEDR=IWDTEDR_KEY|Enable_IWDT;
    4a3e:	104b      	lrw      	r2, 0x78870000	// 4a68 <SYSCON_WDT_CMD+0x34>
		while(!(SYSCON->IWDCR&Check_IWDT_BUSY));
    4a40:	3180      	movi      	r1, 128
		SYSCON->IWDEDR=IWDTEDR_KEY|Enable_IWDT;
    4a42:	b34f      	st.w      	r2, (r3, 0x3c)
		while(!(SYSCON->IWDCR&Check_IWDT_BUSY));
    4a44:	4125      	lsli      	r1, r1, 5
    4a46:	934d      	ld.w      	r2, (r3, 0x34)
    4a48:	6884      	and      	r2, r1
    4a4a:	3a40      	cmpnei      	r2, 0
    4a4c:	0ffd      	bf      	0x4a46	// 4a46 <SYSCON_WDT_CMD+0x12>
	else
	{
		SYSCON->IWDEDR=IWDTEDR_KEY|Disable_IWDT;
		while(SYSCON->IWDCR&Check_IWDT_BUSY);
	}
}
    4a4e:	783c      	jmp      	r15
		SYSCON->IWDEDR=IWDTEDR_KEY|Disable_IWDT;
    4a50:	1047      	lrw      	r2, 0x788755aa	// 4a6c <SYSCON_WDT_CMD+0x38>
		while(SYSCON->IWDCR&Check_IWDT_BUSY);
    4a52:	3180      	movi      	r1, 128
		SYSCON->IWDEDR=IWDTEDR_KEY|Disable_IWDT;
    4a54:	b34f      	st.w      	r2, (r3, 0x3c)
		while(SYSCON->IWDCR&Check_IWDT_BUSY);
    4a56:	4125      	lsli      	r1, r1, 5
    4a58:	934d      	ld.w      	r2, (r3, 0x34)
    4a5a:	6884      	and      	r2, r1
    4a5c:	3a40      	cmpnei      	r2, 0
    4a5e:	0bfd      	bt      	0x4a58	// 4a58 <SYSCON_WDT_CMD+0x24>
    4a60:	07f7      	br      	0x4a4e	// 4a4e <SYSCON_WDT_CMD+0x1a>
    4a62:	0000      	bkpt
    4a64:	2000005c 	.long	0x2000005c
    4a68:	78870000 	.long	0x78870000
    4a6c:	788755aa 	.long	0x788755aa

Disassembly of section .text.SYSCON_IWDCNT_Reload:

00004a70 <SYSCON_IWDCNT_Reload>:
//EntryParameter:NONE
//ReturnValue: NONE
/*************************************************************/
void SYSCON_IWDCNT_Reload(void)
{
	SYSCON->IWDCNT=CLR_IWDT;
    4a70:	1064      	lrw      	r3, 0x2000005c	// 4a80 <SYSCON_IWDCNT_Reload+0x10>
    4a72:	32b4      	movi      	r2, 180
    4a74:	9360      	ld.w      	r3, (r3, 0x0)
    4a76:	237f      	addi      	r3, 128
    4a78:	4257      	lsli      	r2, r2, 23
    4a7a:	b34e      	st.w      	r2, (r3, 0x38)
}
    4a7c:	783c      	jmp      	r15
    4a7e:	0000      	bkpt
    4a80:	2000005c 	.long	0x2000005c

Disassembly of section .text.SYSCON_IWDCNT_Config:

00004a84 <SYSCON_IWDCNT_Config>:
//IWDT_INTW_DIV_X:IWDT_INTW_DIV_1/2/3/4/4/5/6
//ReturnValue: NONE
/*************************************************************/
void SYSCON_IWDCNT_Config(IWDT_TIME_TypeDef IWDT_TIME_X , IWDT_TIMEDIV_TypeDef IWDT_INTW_DIV_X )
{
	SYSCON->IWDCR=IWDT_KEY|IWDT_TIME_X|IWDT_INTW_DIV_X;
    4a84:	1044      	lrw      	r2, 0x87780000	// 4a94 <SYSCON_IWDCNT_Config+0x10>
    4a86:	1065      	lrw      	r3, 0x2000005c	// 4a98 <SYSCON_IWDCNT_Config+0x14>
    4a88:	6c48      	or      	r1, r2
    4a8a:	9360      	ld.w      	r3, (r3, 0x0)
    4a8c:	6c04      	or      	r0, r1
    4a8e:	237f      	addi      	r3, 128
    4a90:	b30d      	st.w      	r0, (r3, 0x34)
}
    4a92:	783c      	jmp      	r15
    4a94:	87780000 	.long	0x87780000
    4a98:	2000005c 	.long	0x2000005c

Disassembly of section .text.SYSCON_LVD_Config:

00004a9c <SYSCON_LVD_Config>:
//X_LVD_INT:ENABLE_LVD_INT,DISABLE_LVD_INT
//INTDET_POL_X:INTDET_POL_fall,INTDET_POL_X_rise,INTDET_POL_X_riseORfall
//ReturnValue: NONE
/*************************************************************/
void SYSCON_LVD_Config(X_LVDEN_TypeDef X_LVDEN , INTDET_LVL_X_TypeDef INTDET_LVL_X , RSTDET_LVL_X_TypeDef RSTDET_LVL_X , X_LVD_INT_TypeDef X_LVD_INT , INTDET_POL_X_TypeDef INTDET_POL_X)
{
    4a9c:	14c3      	push      	r4-r6
    4a9e:	9883      	ld.w      	r4, (r14, 0xc)
	//SYSCON->LVDCR=LVD_KEY;
	SYSCON->LVDCR=LVD_KEY|X_LVDEN|INTDET_LVL_X|RSTDET_LVL_X|X_LVD_INT|INTDET_POL_X;
    4aa0:	10c5      	lrw      	r6, 0xb44b0000	// 4ab4 <SYSCON_LVD_Config+0x18>
    4aa2:	6d18      	or      	r4, r6
    4aa4:	6cd0      	or      	r3, r4
    4aa6:	6c8c      	or      	r2, r3
    4aa8:	6c48      	or      	r1, r2
    4aaa:	10a4      	lrw      	r5, 0x2000005c	// 4ab8 <SYSCON_LVD_Config+0x1c>
    4aac:	6c04      	or      	r0, r1
    4aae:	95a0      	ld.w      	r5, (r5, 0x0)
    4ab0:	b513      	st.w      	r0, (r5, 0x4c)
}
    4ab2:	1483      	pop      	r4-r6
    4ab4:	b44b0000 	.long	0xb44b0000
    4ab8:	2000005c 	.long	0x2000005c

Disassembly of section .text.EXTI_trigger_CMD:

00004abc <EXTI_trigger_CMD>:
//EXI_tringer_mode:_EXIRT,_EXIFT
//ReturnValue: LVD detection flag
/*************************************************************/
void EXTI_trigger_CMD(FunctionalStatus NewState , SYSCON_EXIPIN_TypeDef  EXIPIN , EXI_tringer_mode_TypeDef EXI_tringer_mode)
{
	switch(EXI_tringer_mode)
    4abc:	3a40      	cmpnei      	r2, 0
    4abe:	0c04      	bf      	0x4ac6	// 4ac6 <EXTI_trigger_CMD+0xa>
    4ac0:	3a41      	cmpnei      	r2, 1
    4ac2:	0c0e      	bf      	0x4ade	// 4ade <EXTI_trigger_CMD+0x22>
		{
			SYSCON->EXIFT &=~EXIPIN;	
		}
		break;
	}	
}
    4ac4:	783c      	jmp      	r15
    4ac6:	106d      	lrw      	r3, 0x2000005c	// 4af8 <EXTI_trigger_CMD+0x3c>
		if(NewState != DISABLE)
    4ac8:	3840      	cmpnei      	r0, 0
			SYSCON->EXIRT |=EXIPIN;
    4aca:	9360      	ld.w      	r3, (r3, 0x0)
    4acc:	237f      	addi      	r3, 128
    4ace:	9345      	ld.w      	r2, (r3, 0x14)
		if(NewState != DISABLE)
    4ad0:	0c04      	bf      	0x4ad8	// 4ad8 <EXTI_trigger_CMD+0x1c>
			SYSCON->EXIRT |=EXIPIN;
    4ad2:	6c48      	or      	r1, r2
    4ad4:	b325      	st.w      	r1, (r3, 0x14)
    4ad6:	07f7      	br      	0x4ac4	// 4ac4 <EXTI_trigger_CMD+0x8>
			SYSCON->EXIRT &=~EXIPIN;	
    4ad8:	6885      	andn      	r2, r1
    4ada:	b345      	st.w      	r2, (r3, 0x14)
    4adc:	07f4      	br      	0x4ac4	// 4ac4 <EXTI_trigger_CMD+0x8>
    4ade:	1067      	lrw      	r3, 0x2000005c	// 4af8 <EXTI_trigger_CMD+0x3c>
		if(NewState != DISABLE)
    4ae0:	3840      	cmpnei      	r0, 0
			SYSCON->EXIFT |=EXIPIN;
    4ae2:	9360      	ld.w      	r3, (r3, 0x0)
    4ae4:	237f      	addi      	r3, 128
    4ae6:	9346      	ld.w      	r2, (r3, 0x18)
		if(NewState != DISABLE)
    4ae8:	0c04      	bf      	0x4af0	// 4af0 <EXTI_trigger_CMD+0x34>
			SYSCON->EXIFT |=EXIPIN;
    4aea:	6c48      	or      	r1, r2
    4aec:	b326      	st.w      	r1, (r3, 0x18)
    4aee:	07eb      	br      	0x4ac4	// 4ac4 <EXTI_trigger_CMD+0x8>
			SYSCON->EXIFT &=~EXIPIN;	
    4af0:	6885      	andn      	r2, r1
    4af2:	b346      	st.w      	r2, (r3, 0x18)
}
    4af4:	07e8      	br      	0x4ac4	// 4ac4 <EXTI_trigger_CMD+0x8>
    4af6:	0000      	bkpt
    4af8:	2000005c 	.long	0x2000005c

Disassembly of section .text.EXTI_interrupt_CMD:

00004afc <EXTI_interrupt_CMD>:
//NewState:ENABLE,DISABLE
//ReturnValue:NONE
/*************************************************************/
void EXTI_interrupt_CMD(FunctionalStatus NewState , SYSCON_EXIPIN_TypeDef  EXIPIN)
{
	SYSCON->EXICR = 0X3FFF;									//Claer EXI INT status
    4afc:	106b      	lrw      	r3, 0x2000005c	// 4b28 <EXTI_interrupt_CMD+0x2c>
    4afe:	104c      	lrw      	r2, 0x3fff	// 4b2c <EXTI_interrupt_CMD+0x30>
    4b00:	9360      	ld.w      	r3, (r3, 0x0)
    4b02:	237f      	addi      	r3, 128
	if(NewState != DISABLE)
    4b04:	3840      	cmpnei      	r0, 0
	SYSCON->EXICR = 0X3FFF;									//Claer EXI INT status
    4b06:	b34b      	st.w      	r2, (r3, 0x2c)
	if(NewState != DISABLE)
    4b08:	0c0c      	bf      	0x4b20	// 4b20 <EXTI_interrupt_CMD+0x24>
	{
		SYSCON->EXIER|=EXIPIN;								//EXI4 interrupt enable
    4b0a:	9347      	ld.w      	r2, (r3, 0x1c)
    4b0c:	6c84      	or      	r2, r1
    4b0e:	b347      	st.w      	r2, (r3, 0x1c)
		while(!(SYSCON->EXIMR&EXIPIN));						//Check EXI is enabled or not
    4b10:	9349      	ld.w      	r2, (r3, 0x24)
    4b12:	6884      	and      	r2, r1
    4b14:	3a40      	cmpnei      	r2, 0
    4b16:	0ffd      	bf      	0x4b10	// 4b10 <EXTI_interrupt_CMD+0x14>
		SYSCON->EXICR |=EXIPIN;								// Clear EXI status bit
    4b18:	934b      	ld.w      	r2, (r3, 0x2c)
    4b1a:	6c48      	or      	r1, r2
    4b1c:	b32b      	st.w      	r1, (r3, 0x2c)
	}
	else
	{
		SYSCON->EXIDR|=EXIPIN;
	}
}
    4b1e:	783c      	jmp      	r15
		SYSCON->EXIDR|=EXIPIN;
    4b20:	9348      	ld.w      	r2, (r3, 0x20)
    4b22:	6c48      	or      	r1, r2
    4b24:	b328      	st.w      	r1, (r3, 0x20)
}
    4b26:	07fc      	br      	0x4b1e	// 4b1e <EXTI_interrupt_CMD+0x22>
    4b28:	2000005c 	.long	0x2000005c
    4b2c:	00003fff 	.long	0x00003fff

Disassembly of section .text.PCLK_goto_deepsleep_mode:

00004b30 <PCLK_goto_deepsleep_mode>:
//ReturnValue:NONE
/*************************************************************/
void PCLK_goto_deepsleep_mode(void)
{
//	SYSCON->WKCR=0X3F<<8;
	SYSCON->WKCR=0X00<<8;
    4b30:	1064      	lrw      	r3, 0x2000005c	// 4b40 <PCLK_goto_deepsleep_mode+0x10>
    4b32:	3200      	movi      	r2, 0
    4b34:	9360      	ld.w      	r3, (r3, 0x0)
    4b36:	b35b      	st.w      	r2, (r3, 0x6c)
	asm ("stop");
    4b38:	c0004820 	stop
}  
    4b3c:	783c      	jmp      	r15
    4b3e:	0000      	bkpt
    4b40:	2000005c 	.long	0x2000005c

Disassembly of section .text.EXI0_Int_Enable:

00004b44 <EXI0_Int_Enable>:
//EntryParameter:NONE
//ReturnValue:NONE
/*************************************************************/
void EXI0_Int_Enable(void)
{
	INTC_ISER_WRITE(EXI0_INT);    
    4b44:	3280      	movi      	r2, 128
    4b46:	1062      	lrw      	r3, 0xe000e100	// 4b4c <EXI0_Int_Enable+0x8>
    4b48:	b340      	st.w      	r2, (r3, 0x0)
}
    4b4a:	783c      	jmp      	r15
    4b4c:	e000e100 	.long	0xe000e100

Disassembly of section .text.EXI1_Int_Enable:

00004b50 <EXI1_Int_Enable>:
//EntryParameter:NONE
//ReturnValue:NONE
/*************************************************************/
void EXI1_Int_Enable(void)
{
	INTC_ISER_WRITE(EXI1_INT);    
    4b50:	3380      	movi      	r3, 128
    4b52:	4361      	lsli      	r3, r3, 1
    4b54:	1042      	lrw      	r2, 0xe000e100	// 4b5c <EXI1_Int_Enable+0xc>
    4b56:	b260      	st.w      	r3, (r2, 0x0)
}
    4b58:	783c      	jmp      	r15
    4b5a:	0000      	bkpt
